Archive member included because of file (symbol)

../../../../sdk/JN-SW-4170/Components/Library\libZPSMAC_Mini_SOC_JN516x.a(zps_mac_shim.o)
                              ../../ExtendedColorLight/Build/app_zlo_light_node.o (symbol from plugin) (ZPS_u32MacSetTxBuffers)
../../../../sdk/JN-SW-4170/Components/Library\libZPSMAC_Mini_SOC_JN516x.a(zps_miniMac.o)
                              zps_mac_shim.o (symbol from plugin) (zps_eSocMacSetTxBuffers)
../../../../sdk/JN-SW-4170/Components/Library\libZPSMAC_Mini_SOC_JN516x.a(zps_mac_common.o)
                              zps_mac_shim.o (symbol from plugin) (g_u8LegacyBeaconPayloadLen)
../../../../sdk/JN-SW-4170/Components/Library\libZPSMAC_Mini_SOC_JN516x.a(zps_mac_ie.o)
                              zps_mac_common.o (symbol from plugin) (zps_u8MacIECopyZigbeePayloadSubIE)
../../../../sdk/JN-SW-4170/Components/Library\libPWRM_JN516x.a(pwrm.o)
                              ../../ExtendedColorLight/Build/app_start_light.o (symbol from plugin) (PWRM_vInit)
../../../../sdk/JN-SW-4170/Components/Library\libPWRM_JN516x.a(pwrm_setjmp_JN516x.o)
                              pwrm.o (symbol from plugin) (setjmp)
../../../../sdk/JN-SW-4170/Components/Library\libPWRM_JN516x.a(pwrm_cold_start.o)
                              (AppColdStart)
../../../../sdk/JN-SW-4170/Components/Library\libPWRM_JN516x.a(pwrm_warm_start.o)
                              (AppWarmStart)
../../../../sdk/JN-SW-4170/Components/Library\libAES_SW_JN516x.a(aes_sw_mmo.o)
                              ../../ExtendedColorLight/Build/OTA.o (symbol from plugin) (AESSW_vMMOBlockUpdate)
../../../../sdk/JN-SW-4170/Components/Library\libPDUM_JN516x.a(pdum_nwk.o)
                              zps_miniMac.o (symbol from plugin) (PDUM_eNPduAllocate)
../../../../sdk/JN-SW-4170/Components/Library\libPDUM_JN516x.a(pdum_apl.o)
                              ../../ExtendedColorLight/Build/app_ota_client.o (symbol from plugin) (PDUM_u16APduInstanceReadNBO)
../../../../sdk/JN-SW-4170/Components/Library\libPDUM_JN516x.a(pdum.o)
                              pdum_nwk.o (symbol from plugin) (PDUM_u16SizeNBO)
../../../../sdk/JN-SW-4170/Components/Library\libZPSAPL_JN516x.a(zps_apl_inl.o)
                              zps_mac_ie.o (symbol from plugin) (ZPS_pu8AplZdoGetVsOUI)
../../../../sdk/JN-SW-4170/Components/Library\libZPSAPL_JN516x.a(zps_apl_af.o)
                              ../../ExtendedColorLight/Build/app_zlo_light_node.o (symbol from plugin) (ZPS_eAplAfInit)
../../../../sdk/JN-SW-4170/Components/Library\libZPSAPL_JN516x.a(zps_apl_af_apsde.o)
                              ../../ExtendedColorLight/Build/zps_gen.o (symbol from plugin) (zps_vHandleApsdeDataFragIndNotSupported)
../../../../sdk/JN-SW-4170/Components/Library\libZPSAPL_JN516x.a(zps_apl_task.o)
                              zps_apl_af_apsde.o (symbol from plugin) (zps_vAplAfPostEvent)
../../../../sdk/JN-SW-4170/Components/Library\libZPSAPL_JN516x.a(zps_apl_apsde.o)
                              zps_apl_task.o (symbol from plugin) (ZPS_vAplRegisterApsdeDcfmIndCallbacks)
../../../../sdk/JN-SW-4170/Components/Library\libZPSAPL_JN516x.a(zps_apl_apsme.o)
                              zps_apl_task.o (symbol from plugin) (ZPS_vAplRegisterApsmeDcfmIndCallbacks)
../../../../sdk/JN-SW-4170/Components/Library\libZPSAPL_JN516x.a(zps_apl_aps_nlde.o)
                              ../../ExtendedColorLight/Build/OTA_client.o (symbol from plugin) (ZPS_vRunningCRC32)
../../../../sdk/JN-SW-4170/Components/Library\libZPSAPL_JN516x.a(zps_apl_sec.o)
                              zps_apl_apsme.o (symbol from plugin) (zps_vGenerateHashForVerifiedKey)
../../../../sdk/JN-SW-4170/Components/Library\libZPSAPL_JN516x.a(zps_apl_aib.o)
                              ../../ExtendedColorLight/Build/app_green_power.o (symbol from plugin) (zps_psAplAibGetAib)
../../../../sdk/JN-SW-4170/Components/Library\libZPSAPL_JN516x.a(zps_apl_zdo_nwkmanager.o)
                              zps_apl_apsme.o (symbol from plugin) (zps_vAplSaveRecord)
../../../../sdk/JN-SW-4170/Components/Library\libZPSAPL_JN516x.a(zps_apl_zdo_handle_zdp_event.o)
                              zps_apl_task.o (symbol from plugin) (zps_bAplZdoHandleZdpEvent)
../../../../sdk/JN-SW-4170/Components/Library\libZPSAPL_JN516x.a(zps_apl_zdo_trust_center.o)
                              zps_apl_inl.o (symbol from plugin) (zps_eAplTrustCenterFindDevice)
../../../../sdk/JN-SW-4170/Components/Library\libZPSAPL_JN516x.a(zps_apl_zdo_common.o)
                              zps_apl_zdo_nwkmanager.o (symbol from plugin) (zps_eAplZdoNlmeleaveWrapper)
../../../../sdk/JN-SW-4170/Components/Library\libZPSAPL_JN516x.a(zps_apl_zdo_group.o)
                              ../../ExtendedColorLight/Build/GreenPowerCommon.o (symbol from plugin) (zps_eAplZdoGroupEndpointAdd)
../../../../sdk/JN-SW-4170/Components/Library\libZPSAPL_JN516x.a(zps_apl_zdo_default_server.o)
                              ../../ExtendedColorLight/Build/zps_gen.o (symbol from plugin) (zps_vAplZdoDefaultServerInit)
../../../../sdk/JN-SW-4170/Components/Library\libZPSAPL_JN516x.a(zps_apl_zdo_bind_manager.o)
                              zps_apl_inl.o (symbol from plugin) (zps_eAplZdoBind)
../../../../sdk/JN-SW-4170/Components/Library\libZPSAPL_JN516x.a(zps_apl_mac_isr.o)
                              zps_apl_zdo_nwkmanager.o (symbol from plugin) (zps_vAplAfIsrInit)
../../../../sdk/JN-SW-4170/Components/Library\libZPSAPL_JN516x.a(zps_apl_zdo_nwk_addr_server.o)
                              ../../ExtendedColorLight/Build/zps_gen.o (symbol from plugin) (zps_vAplZdoNwkAddrServerInit)
../../../../sdk/JN-SW-4170/Components/Library\libZPSAPL_JN516x.a(zps_apl_zdo_ieee_addr_server.o)
                              ../../ExtendedColorLight/Build/zps_gen.o (symbol from plugin) (zps_vAplZdoIeeeAddrServerInit)
../../../../sdk/JN-SW-4170/Components/Library\libZPSAPL_JN516x.a(zps_apl_zdo_match_desc_server.o)
                              ../../ExtendedColorLight/Build/zps_gen.o (symbol from plugin) (zps_vAplZdoMatchDescServerInit)
../../../../sdk/JN-SW-4170/Components/Library\libZPSAPL_JN516x.a(zps_apl_zdo_node_desc_server.o)
                              ../../ExtendedColorLight/Build/zps_gen.o (symbol from plugin) (zps_vAplZdoNodeDescServerInit)
../../../../sdk/JN-SW-4170/Components/Library\libZPSAPL_JN516x.a(zps_apl_zdo_simple_desc_server.o)
                              ../../ExtendedColorLight/Build/zps_gen.o (symbol from plugin) (zps_vAplZdoSimpleDescServerInit)
../../../../sdk/JN-SW-4170/Components/Library\libZPSAPL_JN516x.a(zps_apl_zdo_power_desc_server.o)
                              ../../ExtendedColorLight/Build/zps_gen.o (symbol from plugin) (zps_vAplZdoPowerDescServerInit)
../../../../sdk/JN-SW-4170/Components/Library\libZPSAPL_JN516x.a(zps_apl_zdo_active_ep_server.o)
                              ../../ExtendedColorLight/Build/zps_gen.o (symbol from plugin) (zps_vAplZdoActiveEpServerInit)
../../../../sdk/JN-SW-4170/Components/Library\libZPSAPL_JN516x.a(zps_apl_zdo_device_annce_server.o)
                              ../../ExtendedColorLight/Build/zps_gen.o (symbol from plugin) (zps_vAplZdoDeviceAnnceServerInit)
../../../../sdk/JN-SW-4170/Components/Library\libZPSAPL_JN516x.a(zps_apl_zdo_parent_annce_server.o)
                              ../../ExtendedColorLight/Build/zps_gen.o (symbol from plugin) (zps_vAplZdoParentAnnceServerInit)
../../../../sdk/JN-SW-4170/Components/Library\libZPSAPL_JN516x.a(zps_apl_zdo_permit_joining_server.o)
                              ../../ExtendedColorLight/Build/zps_gen.o (symbol from plugin) (zps_vAplZdoPermitJoiningServerInit)
../../../../sdk/JN-SW-4170/Components/Library\libZPSAPL_JN516x.a(zps_apl_zdo_mgmt_lqi_server.o)
                              ../../ExtendedColorLight/Build/zps_gen.o (symbol from plugin) (zps_vAplZdoMgmtLqiServerInit)
../../../../sdk/JN-SW-4170/Components/Library\libZPSAPL_JN516x.a(zps_apl_zdo_mgmt_rtg_server.o)
                              ../../ExtendedColorLight/Build/zps_gen.o (symbol from plugin) (zps_vAplZdoMgmtRtgServerInit)
../../../../sdk/JN-SW-4170/Components/Library\libZPSAPL_JN516x.a(zps_apl_zdo_mgmt_leave_server.o)
                              ../../ExtendedColorLight/Build/zps_gen.o (symbol from plugin) (zps_vAplZdoMgmtLeaveServerInit)
../../../../sdk/JN-SW-4170/Components/Library\libZPSAPL_JN516x.a(zps_apl_zdo_mgmt_nwk_update_server.o)
                              ../../ExtendedColorLight/Build/zps_gen.o (symbol from plugin) (zps_vAplZdoMgmtNWKUpdateServerInit)
../../../../sdk/JN-SW-4170/Components/Library\libZPSAPL_JN516x.a(zps_apl_zdo_bind_unbind_server.o)
                              ../../ExtendedColorLight/Build/zps_gen.o (symbol from plugin) (zps_vAplZdoBindUnbindServerInit)
../../../../sdk/JN-SW-4170/Components/Library\libZPSAPL_JN516x.a(zps_apl_zdo_bound_data_request_manager.o)
                              ../../ExtendedColorLight/Build/zps_gen.o (symbol from plugin) (zps_bAplZdoBindRequestServer)
../../../../sdk/JN-SW-4170/Components/Library\libZPSAPL_JN516x.a(zps_apl_zdo_nwkmanager_client.o)
                              zps_apl_zdo_bind_unbind_server.o (symbol from plugin) (zps_vAplZdoClientLookupNwkAddress)
../../../../sdk/JN-SW-4170/Components/Library\libZPSAPL_JN516x.a(zps_apl_zdo_mgmt_bind_server.o)
                              ../../ExtendedColorLight/Build/zps_gen.o (symbol from plugin) (zps_vAplZdoMgmtBindServerInit)
../../../../sdk/JN-SW-4170/Components/Library\libZPSAPL_JN516x.a(zps_apl_zdp_apsde_req.o)
                              zps_apl_zdo_parent_annce_server.o (symbol from plugin) (zps_eAplZdpApsdeReqInternal)
../../../../sdk/JN-SW-4170/Components/Library\libZPSAPL_JN516x.a(zps_apl_zdp_active_ep_req.o)
                              zps_apl_inl.o (symbol from plugin) (zps_eAplZdpActiveEpRequest)
../../../../sdk/JN-SW-4170/Components/Library\libZPSAPL_JN516x.a(zps_apl_zdp_active_ep_store_req.o)
                              zps_apl_inl.o (symbol from plugin) (zps_eAplZdpActiveEpStoreRequest)
../../../../sdk/JN-SW-4170/Components/Library\libZPSAPL_JN516x.a(zps_apl_zdp_backup_source_bind_req.o)
                              zps_apl_inl.o (symbol from plugin) (zps_eAplZdpBackupSourceBindRequest)
../../../../sdk/JN-SW-4170/Components/Library\libZPSAPL_JN516x.a(zps_apl_zdp_bind_register_req.o)
                              zps_apl_inl.o (symbol from plugin) (zps_eAplZdpBindRegisterRequest)
../../../../sdk/JN-SW-4170/Components/Library\libZPSAPL_JN516x.a(zps_apl_zdp_bind_unbind_req.o)
                              zps_apl_inl.o (symbol from plugin) (zps_eAplZdpBindUnbindRequest)
../../../../sdk/JN-SW-4170/Components/Library\libZPSAPL_JN516x.a(zps_apl_zdp_bkup_bind_table_req.o)
                              zps_apl_inl.o (symbol from plugin) (zps_eAplZdpBackupBindTableRequest)
../../../../sdk/JN-SW-4170/Components/Library\libZPSAPL_JN516x.a(zps_apl_zdp_complex_desc_req.o)
                              zps_apl_inl.o (symbol from plugin) (zps_eAplZdpComplexDescRequest)
../../../../sdk/JN-SW-4170/Components/Library\libZPSAPL_JN516x.a(zps_apl_zdp_device_annce.o)
                              ../../ExtendedColorLight/Build/GreenPowerCommon.o (symbol from plugin) (zps_eAplZdpDeviceAnnceRequest)
../../../../sdk/JN-SW-4170/Components/Library\libZPSAPL_JN516x.a(zps_apl_zdp_discovery_cache_req.o)
                              zps_apl_inl.o (symbol from plugin) (zps_eAplZdpDiscoveryCacheRequest)
../../../../sdk/JN-SW-4170/Components/Library\libZPSAPL_JN516x.a(zps_apl_zdp_discovery_store_req.o)
                              zps_apl_inl.o (symbol from plugin) (zps_eAplZdpDiscoveryStoreRequest)
../../../../sdk/JN-SW-4170/Components/Library\libZPSAPL_JN516x.a(zps_apl_zdp_end_device_bind_req.o)
                              zps_apl_inl.o (symbol from plugin) (zps_eAplZdpEndDeviceBindRequest)
../../../../sdk/JN-SW-4170/Components/Library\libZPSAPL_JN516x.a(zps_apl_zdp_extended_active_ep_req.o)
                              zps_apl_inl.o (symbol from plugin) (zps_eAplZdpExtendedActiveEpRequest)
../../../../sdk/JN-SW-4170/Components/Library\libZPSAPL_JN516x.a(zps_apl_zdp_extended_simple_desc_req.o)
                              zps_apl_inl.o (symbol from plugin) (zps_eAplZdpExtendedSimpleDescRequest)
../../../../sdk/JN-SW-4170/Components/Library\libZPSAPL_JN516x.a(zps_apl_zdp_find_node_cache_req.o)
                              zps_apl_inl.o (symbol from plugin) (zps_eAplZdpFindNodeCacheRequest)
../../../../sdk/JN-SW-4170/Components/Library\libZPSAPL_JN516x.a(zps_apl_zdp_ieee_addr_req.o)
                              ../../ExtendedColorLight/Build/app_ota_client.o (symbol from plugin) (zps_eAplZdpIeeeAddrRequest)
../../../../sdk/JN-SW-4170/Components/Library\libZPSAPL_JN516x.a(zps_apl_zdp_match_desc_req.o)
                              ../../ExtendedColorLight/Build/app_ota_client.o (symbol from plugin) (zps_eAplZdpMatchDescRequest)
../../../../sdk/JN-SW-4170/Components/Library\libZPSAPL_JN516x.a(zps_apl_zdp_mgmt_bind_req.o)
                              zps_apl_inl.o (symbol from plugin) (zps_eAplZdpMgmtBindRequest)
../../../../sdk/JN-SW-4170/Components/Library\libZPSAPL_JN516x.a(zps_apl_zdp_mgmt_cache_req.o)
                              zps_apl_inl.o (symbol from plugin) (zps_eAplZdpMgmtCacheRequest)
../../../../sdk/JN-SW-4170/Components/Library\libZPSAPL_JN516x.a(zps_apl_zdp_mgmt_direct_join_req.o)
                              zps_apl_inl.o (symbol from plugin) (zps_eAplZdpMgmtDirectJoinRequest)
../../../../sdk/JN-SW-4170/Components/Library\libZPSAPL_JN516x.a(zps_apl_zdp_mgmt_leave_req.o)
                              zps_apl_inl.o (symbol from plugin) (zps_eAplZdpMgmtLeaveRequest)
../../../../sdk/JN-SW-4170/Components/Library\libZPSAPL_JN516x.a(zps_apl_zdp_mgmt_lqi_req.o)
                              zps_apl_inl.o (symbol from plugin) (zps_eAplZdpMgmtLqiRequest)
../../../../sdk/JN-SW-4170/Components/Library\libZPSAPL_JN516x.a(zps_apl_zdp_mgmt_nwk_disc_req.o)
                              zps_apl_inl.o (symbol from plugin) (zps_eAplZdpMgmtNwkDiscRequest)
../../../../sdk/JN-SW-4170/Components/Library\libZPSAPL_JN516x.a(zps_apl_zdp_mgmt_nwk_update_req.o)
                              zps_apl_inl.o (symbol from plugin) (zps_eAplZdpMgmtNwkUpdateRequest)
../../../../sdk/JN-SW-4170/Components/Library\libZPSAPL_JN516x.a(zps_apl_zdp_mgmt_permit_joining_req.o)
                              ../../ExtendedColorLight/Build/bdb_ns.o (symbol from plugin) (zps_eAplZdpMgmtPermitJoiningRequest)
../../../../sdk/JN-SW-4170/Components/Library\libZPSAPL_JN516x.a(zps_apl_zdp_mgmt_rtg_req.o)
                              zps_apl_inl.o (symbol from plugin) (zps_eAplZdpMgmtRtgRequest)
../../../../sdk/JN-SW-4170/Components/Library\libZPSAPL_JN516x.a(zps_apl_zdp_node_desc_req.o)
                              ../../ExtendedColorLight/Build/bdb_ns.o (symbol from plugin) (zps_eAplZdpNodeDescRequest)
../../../../sdk/JN-SW-4170/Components/Library\libZPSAPL_JN516x.a(zps_apl_zdp_nwk_addr_req.o)
                              zps_apl_inl.o (symbol from plugin) (zps_eAplZdpNwkAddrRequest)
../../../../sdk/JN-SW-4170/Components/Library\libZPSAPL_JN516x.a(zps_apl_zdp_parent_annce_req.o)
                              zps_apl_inl.o (symbol from plugin) (zps_eAplZdpParentAnnceReq)
../../../../sdk/JN-SW-4170/Components/Library\libZPSAPL_JN516x.a(zps_apl_zdp_power_desc_req.o)
                              zps_apl_inl.o (symbol from plugin) (zps_eAplZdpPowerDescRequest)
../../../../sdk/JN-SW-4170/Components/Library\libZPSAPL_JN516x.a(zps_apl_zdp_power_desc_store_req.o)
                              zps_apl_inl.o (symbol from plugin) (zps_eAplZdpPowerDescStoreRequest)
../../../../sdk/JN-SW-4170/Components/Library\libZPSAPL_JN516x.a(zps_apl_zdp_recover_bind_table_req.o)
                              zps_apl_inl.o (symbol from plugin) (zps_eAplZdpRecoverBindTableRequest)
../../../../sdk/JN-SW-4170/Components/Library\libZPSAPL_JN516x.a(zps_apl_zdp_recover_source_bind_req.o)
                              zps_apl_inl.o (symbol from plugin) (zps_eAplZdpRecoverSourceBindRequest)
../../../../sdk/JN-SW-4170/Components/Library\libZPSAPL_JN516x.a(zps_apl_zdp_remove_bkup_bind_entry_req.o)
                              zps_apl_inl.o (symbol from plugin) (zps_eAplZdpRemoveBkupBindEntryRequest)
../../../../sdk/JN-SW-4170/Components/Library\libZPSAPL_JN516x.a(zps_apl_zdp_remove_node_cache_req.o)
                              zps_apl_inl.o (symbol from plugin) (zps_eAplZdpRemoveNodeCacheRequest)
../../../../sdk/JN-SW-4170/Components/Library\libZPSAPL_JN516x.a(zps_apl_zdp_replace_device_req.o)
                              zps_apl_inl.o (symbol from plugin) (zps_eAplZdpReplaceDeviceRequest)
../../../../sdk/JN-SW-4170/Components/Library\libZPSAPL_JN516x.a(zps_apl_zdp_simple_desc_req.o)
                              zps_apl_inl.o (symbol from plugin) (zps_eAplZdpSimpleDescRequest)
../../../../sdk/JN-SW-4170/Components/Library\libZPSAPL_JN516x.a(zps_apl_zdp_simple_desc_store_req.o)
                              zps_apl_inl.o (symbol from plugin) (zps_eAplZdpSimpleDescStoreRequest)
../../../../sdk/JN-SW-4170/Components/Library\libZPSAPL_JN516x.a(zps_apl_zdp_system_server_discovery_req.o)
                              zps_apl_inl.o (symbol from plugin) (zps_eAplZdpSystemServerDiscoveryRequest)
../../../../sdk/JN-SW-4170/Components/Library\libZPSAPL_JN516x.a(zps_apl_zdp_store_bkup_bind_entry_req.o)
                              zps_apl_inl.o (symbol from plugin) (zps_eAplZdpStoreBkupBindEntryRequest)
../../../../sdk/JN-SW-4170/Components/Library\libZPSAPL_JN516x.a(zps_apl_zdp_node_desc_store_req.o)
                              zps_apl_inl.o (symbol from plugin) (zps_eAplZdpNodeDescStoreRequest)
../../../../sdk/JN-SW-4170/Components/Library\libZPSAPL_JN516x.a(zps_apl_zdp_user_desc_req.o)
                              zps_apl_inl.o (symbol from plugin) (zps_eAplZdpUserDescRequest)
../../../../sdk/JN-SW-4170/Components/Library\libZPSAPL_JN516x.a(zps_apl_zdp_user_desc_set.o)
                              zps_apl_inl.o (symbol from plugin) (zps_eAplZdpUserDescSetRequest)
../../../../sdk/JN-SW-4170/Components/Library\libZPSAPL_JN516x.a(zps_apl_zdp_nwk_addr_rsp.o)
                              zps_apl_zdo_nwk_addr_server.o (symbol from plugin) (zps_eZdpNwkAddrResponse)
../../../../sdk/JN-SW-4170/Components/Library\libZPSAPL_JN516x.a(zps_apl_zdp_ieee_addr_rsp.o)
                              zps_apl_zdo_ieee_addr_server.o (symbol from plugin) (zps_eZdpIeeeAddrResponse)
../../../../sdk/JN-SW-4170/Components/Library\libZPSAPL_JN516x.a(zps_apl_zdp_node_desc_rsp.o)
                              zps_apl_zdo_node_desc_server.o (symbol from plugin) (zps_eZdpNodeDescResponse)
../../../../sdk/JN-SW-4170/Components/Library\libZPSAPL_JN516x.a(zps_apl_zdp_parent_annce_rsp.o)
                              zps_apl_zdo_parent_annce_server.o (symbol from plugin) (zps_eZdpParentAnnceResponse)
../../../../sdk/JN-SW-4170/Components/Library\libZPSAPL_JN516x.a(zps_apl_zdp_power_desc_rsp.o)
                              zps_apl_zdo_power_desc_server.o (symbol from plugin) (zps_eZdpPowerDescResponse)
../../../../sdk/JN-SW-4170/Components/Library\libZPSAPL_JN516x.a(zps_apl_zdp_simple_desc_rsp.o)
                              zps_apl_zdo_simple_desc_server.o (symbol from plugin) (zps_eZdpSimpleDescResponse)
../../../../sdk/JN-SW-4170/Components/Library\libZPSAPL_JN516x.a(zps_apl_zdp_active_ep_rsp.o)
                              zps_apl_zdo_active_ep_server.o (symbol from plugin) (zps_eZdpActiveEpResponse)
../../../../sdk/JN-SW-4170/Components/Library\libZPSAPL_JN516x.a(zps_apl_zdp_match_desc_rsp.o)
                              zps_apl_zdo_match_desc_server.o (symbol from plugin) (zps_eZdpMatchDescResponse)
../../../../sdk/JN-SW-4170/Components/Library\libZPSAPL_JN516x.a(zps_apl_zdp_bind_rsp.o)
                              zps_apl_zdo_bind_unbind_server.o (symbol from plugin) (zps_eAplZdpBindResponse)
../../../../sdk/JN-SW-4170/Components/Library\libZPSAPL_JN516x.a(zps_apl_zdp_unbind_rsp.o)
                              zps_apl_zdo_bind_unbind_server.o (symbol from plugin) (zps_eZdpUnbindResponse)
../../../../sdk/JN-SW-4170/Components/Library\libZPSAPL_JN516x.a(zps_apl_zdp_mgmt_lqi_rsp.o)
                              zps_apl_zdo_mgmt_lqi_server.o (symbol from plugin) (zps_eAplZdpMgmtLqiResponse)
../../../../sdk/JN-SW-4170/Components/Library\libZPSAPL_JN516x.a(zps_apl_zdp_mgmt_rtg_rsp.o)
                              zps_apl_zdo_mgmt_rtg_server.o (symbol from plugin) (zps_eAplZdpMgmtRtgResponse)
../../../../sdk/JN-SW-4170/Components/Library\libZPSAPL_JN516x.a(zps_apl_zdp_mgmt_leave_rsp.o)
                              zps_apl_zdo_mgmt_leave_server.o (symbol from plugin) (zps_eZdpMgmtLeaveResponse)
../../../../sdk/JN-SW-4170/Components/Library\libZPSAPL_JN516x.a(zps_apl_zdp_mgmt_nwk_update_notify_rsp.o)
                              zps_apl_zdo_mgmt_nwk_update_server.o (symbol from plugin) (zps_eZdpMgmtNwkUpdateNotifyResponse)
../../../../sdk/JN-SW-4170/Components/Library\libZPSAPL_JN516x.a(zps_apl_zdp_mgmt_permit_joining_rsp.o)
                              zps_apl_zdo_permit_joining_server.o (symbol from plugin) (zps_eZdpMgmtPermitJoiningResponse)
../../../../sdk/JN-SW-4170/Components/Library\libZPSAPL_JN516x.a(zps_apl_zdp_mgmt_mib_ieee_req.o)
                              zps_apl_inl.o (symbol from plugin) (zps_eAplZdpMgmtMibIeeeRequest)
../../../../sdk/JN-SW-4170/Components/Library\libRandom_JN516x.a(rnd_main.o)
                              zps_apl_af.o (symbol from plugin) (RND_vInit)
../../../../sdk/JN-SW-4170/Components/Library\libPDM_EEPROM_NO_RTOS_JN516x.a(PDM_Bitmap.o)
                              zps_apl_zdo_nwkmanager.o (symbol from plugin) (PDM_eCreateBitmap)
../../../../sdk/JN-SW-4170/Components/Library\libPDM_EEPROM_NO_RTOS_JN516x.a(PDM_Create.o)
                              PDM_Bitmap.o (symbol from plugin) (psPDM_Common)
../../../../sdk/JN-SW-4170/Components/Library\libPDM_EEPROM_NO_RTOS_JN516x.a(PDM_EEPROMsegmentStatus.o)
                              PDM_Create.o (symbol from plugin) (bPDM_DoesEEPROMsegmentContainFileSystemHeader)
../../../../sdk/JN-SW-4170/Components/Library\libPDM_EEPROM_NO_RTOS_JN516x.a(PDM_FileSystem.o)
                              ../../ExtendedColorLight/Build/app_zlo_light_node.o (symbol from plugin) (u8PDM_CalculateFileSystemCapacity)
../../../../sdk/JN-SW-4170/Components/Library\libPDM_EEPROM_NO_RTOS_JN516x.a(PDM_FileSystemData.o)
                              ../../ExtendedColorLight/Build/app_scenes.o (symbol from plugin) (PDM_eReadDataFromRecord)
../../../../sdk/JN-SW-4170/Components/Library\libPDM_EEPROM_NO_RTOS_JN516x.a(PDM_FileSystemDelete.o)
                              PDM_Bitmap.o (symbol from plugin) (vPDM_DeleteSegmentsWithIdFromFileSystem)
../../../../sdk/JN-SW-4170/Components/Library\libPDM_EEPROM_NO_RTOS_JN516x.a(PDM_FileSystemGenerate.o)
                              PDM_Create.o (symbol from plugin) (vPDM_GenerateCleanFileSystem)
../../../../sdk/JN-SW-4170/Components/Library\libPDM_EEPROM_NO_RTOS_JN516x.a(PDM_FileSystemHeaderAccessFunctions.o)
                              PDM_FileSystemData.o (symbol from plugin) (ePDM_ReadFileSystemHeaderCopyIndex)
../../../../sdk/JN-SW-4170/Components/Library\libPDM_EEPROM_NO_RTOS_JN516x.a(PDM_FileSystemHeaderRepair.o)
                              PDM_FileSystemGenerate.o (symbol from plugin) (iPDM_RepairFileSystemRecord)
../../../../sdk/JN-SW-4170/Components/Library\libPDM_EEPROM_NO_RTOS_JN516x.a(PDM_FileSystemHeaderVerify.o)
                              PDM_Bitmap.o (symbol from plugin) (iPDM_ReCalculateWearCountAndChecksumAndWriteFileSystemHeader)
../../../../sdk/JN-SW-4170/Components/Library\libPDM_EEPROM_NO_RTOS_JN516x.a(PDM_FileSystemMove.o)
                              PDM_Bitmap.o (symbol from plugin) (vPDM_MoveAllDataFromListToList)
../../../../sdk/JN-SW-4170/Components/Library\libPDM_EEPROM_NO_RTOS_JN516x.a(PDM_FileSystemVerify.o)
                              PDM_FileSystemGenerate.o (symbol from plugin) (iPDM_VerifyDataSequenceWithBufferId)
../../../../sdk/JN-SW-4170/Components/Library\libPDM_EEPROM_NO_RTOS_JN516x.a(PDM_ImageBitmapReconstruct.o)
                              PDM_FileSystemGenerate.o (symbol from plugin) (iPDM_ReconstructValidImageBitmap)
../../../../sdk/JN-SW-4170/Components/Library\libPDM_EEPROM_NO_RTOS_JN516x.a(PDM_SearchAndListOrder.o)
                              PDM_FileSystemDelete.o (symbol from plugin) (vPDM_AddFileSystemElementToListInAscendingWearCountOrder)
../../../../sdk/JN-SW-4170/Components/Library\libPDM_EEPROM_NO_RTOS_JN516x.a(PDM_Segment.o)
                              PDM_Bitmap.o (symbol from plugin) (iPDM_WriteSegmentHeaderAndData)
../../../../sdk/JN-SW-4170/Components/Library\libPDM_EEPROM_NO_RTOS_JN516x.a(PDM_SegmentData.o)
                              PDM_Bitmap.o (symbol from plugin) (iPDM_ReadUserDataFromFileSystemRecord)
../../../../sdk/JN-SW-4170/Components/Library\libPDM_EEPROM_NO_RTOS_JN516x.a(PDM_SegmentReplace.o)
                              PDM_ImageBitmapReconstruct.o (symbol from plugin) (iPDM_ReplaceChangedSegmentInSequence)
../../../../sdk/JN-SW-4170/Components/Library\libPDM_EEPROM_NO_RTOS_JN516x.a(PDM_SegmentSequenceExtendDelete.o)
                              PDM_FileSystemData.o (symbol from plugin) (bPDM_IsSequenceAppended)
../../../../sdk/JN-SW-4170/Components/Library\libPDM_EEPROM_NO_RTOS_JN516x.a(PDM_SegmentSequenceExtendReconstruct.o)
                              PDM_FileSystemGenerate.o (symbol from plugin) (iPDM_ReconstructExtendedSegmentSequence)
../../../../sdk/JN-SW-4170/Components/Library\libPDM_EEPROM_NO_RTOS_JN516x.a(PDM_SegmentSequenceSave.o)
                              ../../ExtendedColorLight/Build/app_scenes.o (symbol from plugin) (PDM_eSaveRecordData)
../../../../sdk/JN-SW-4170/Components/Library\libPDM_EEPROM_NO_RTOS_JN516x.a(PDM_slist.o)
                              PDM_Create.o (symbol from plugin) (vSLISTinitialise)
../../../../sdk/JN-SW-4170/Components/Library\libPDM_EEPROM_NO_RTOS_JN516x.a(PDM_WearLevelling.o)
                              PDM_FileSystem.o (symbol from plugin) (iPDM_GetWearLevelledBuffer)
../../../../sdk/JN-SW-4170/Components/Library\libPDM_EEPROM_NO_RTOS_JN516x.a(PdmNoRtosStub.o)
                              PDM_Bitmap.o (symbol from plugin) (PDM_vEnterCriticalSection)
../../../../sdk/JN-SW-4170/Components/Library\libPDM_EEPROM_NO_RTOS_JN516x.a(PDM_EEPROMheaderAccessFunctions.o)
                              PDM_FileSystemMove.o (symbol from plugin) (vPDM_SetEEPROMandFileSystemValidState)
../../../../sdk/JN-SW-4170/Components/Library\libPDM_EEPROM_NO_RTOS_JN516x.a(PDM_EEPROMheaderReadAndWrite.o)
                              PDM_EEPROMsegmentStatus.o (symbol from plugin) (iPDM_ReadSegmentHeaderDataFromEEPROMsegment)
../../../../sdk/JN-SW-4170/Components/Library\libPDM_EEPROM_NO_RTOS_JN516x.a(PDM_EEPROMReadAndWrite.o)
                              PDM_FileSystemGenerate.o (symbol from plugin) (iPDM_ReadUserDataFromEEPROMsegment)
../../../../sdk/JN-SW-4170/Components/Library\libPDM_EEPROM_NO_RTOS_JN516x.a(PDM_FileSystemHeaderChecksum.o)
                              PDM_FileSystemHeaderVerify.o (symbol from plugin) (u16PDM_CalculateRecordChecksum)
../../../../sdk/JN-SW-4170/Components/Library\libPDM_EEPROM_NO_RTOS_JN516x.a(PDM_SegmentSequenceExtendFilter.o)
                              PDM_SegmentSequenceExtendReconstruct.o (symbol from plugin) (vPDM_FilterDuplicateAppendedSegmentsFromList)
../../../../sdk/JN-SW-4170/Components/Library\libPDM_EEPROM_NO_RTOS_JN516x.a(PDM_EEPROM.o)
                              PDM_EEPROMheaderReadAndWrite.o (symbol from plugin) (bPDM_InitialiseEEPROM)
../../../../sdk/JN-SW-4170/Components/Library\libZPSGP_JN516x.a(zps_apl_gp.o)
                              ../../ExtendedColorLight/Build/GreenPowerCommon.o (symbol from plugin) (zps_vZgpDeviceActive)
../../../../sdk/JN-SW-4170/Components/Library\libZPSGP_JN516x.a(zps_bdir_gp.o)
                              zps_apl_gp.o (symbol from plugin) (psFindGpTxQentry)
../../../../sdk/JN-SW-4170/Components/Library\libZPSGP_JN516x.a(zps_apl_gp_security.o)
                              ../../ExtendedColorLight/Build/GreenPower.o (symbol from plugin) (ZPS_vZgpTransformKey)
../../../../sdk/JN-SW-4170/Components/Library\libZPSGP_JN516x.a(zps_apl_options.o)
                              zps_apl_gp.o (symbol from plugin) (ZPS_vRegistercStubGreenPower)
../../../../sdk/JN-SW-4170/Components/Library\libZPSIPAN_JN516x.a(zps_apl_interpan.o)
                              ../../ExtendedColorLight/Build/App_ExtendedColorLight.o (symbol from plugin) (ZPS_vAplZdoRegisterInterPanFilter)
../../../../sdk/JN-SW-4170/Components/Library\libZPSNWK_JN516x.a(zps_nwk_dcim.o)
                              zps_apl_task.o (symbol from plugin) (ZPS_vNwkRegisterNlmeDcfmIndCallbacks)
../../../../sdk/JN-SW-4170/Components/Library\libZPSNWK_JN516x.a(zps_nwk_leave.o)
                              zps_apl_zdo_nwkmanager.o (symbol from plugin) (bR21LeaveBehaviour)
../../../../sdk/JN-SW-4170/Components/Library\libZPSNWK_JN516x.a(zps_nwk_lib.o)
                              zps_apl_zdo_nwkmanager.o (symbol from plugin) (zps_vInitBeaconPayload)
../../../../sdk/JN-SW-4170/Components/Library\libZPSNWK_JN516x.a(zps_nwk_lkst.o)
                              zps_apl_mac_isr.o (symbol from plugin) (zps_u8CalcLinkCost)
../../../../sdk/JN-SW-4170/Components/Library\libZPSNWK_JN516x.a(zps_nwk_main.o)
                              zps_apl_zdo_nwkmanager.o (symbol from plugin) (ZPS_pvNwkCtor)
../../../../sdk/JN-SW-4170/Components/Library\libZPSNWK_JN516x.a(zps_nwk_maint.o)
                              zps_apl_gp.o (symbol from plugin) (zps_psSendNetworkStatusCmd)
../../../../sdk/JN-SW-4170/Components/Library\libZPSNWK_JN516x.a(zps_nwk_mcps.o)
                              zps_nwk_main.o (symbol from plugin) (zps_vNwkMcpsMgrInit)
../../../../sdk/JN-SW-4170/Components/Library\libZPSNWK_JN516x.a(zps_nwk_mlme.o)
                              zps_apl_task.o (symbol from plugin) (ZPS_vNwkHandleMlmeDcfmInd)
../../../../sdk/JN-SW-4170/Components/Library\libZPSNWK_JN516x.a(zps_nwk_nib.o)
                              zps_apl_zdo_nwkmanager.o (symbol from plugin) (zps_vNwkDefaultStateMachines)
../../../../sdk/JN-SW-4170/Components/Library\libZPSNWK_JN516x.a(zps_nwk_nlde.o)
                              zps_apl_af_apsde.o (symbol from plugin) (ZPS_vNwkHandleNldeReqRsp)
../../../../sdk/JN-SW-4170/Components/Library\libZPSNWK_JN516x.a(zps_nwk_nlme.o)
                              zps_apl_apsde.o (symbol from plugin) (ZPS_vNwkHandleNlmeReqRsp)
../../../../sdk/JN-SW-4170/Components/Library\libZPSNWK_JN516x.a(zps_nwk_pmjn.o)
                              zps_nwk_main.o (symbol from plugin) (zps_vNwkPermitJoiningInit)
../../../../sdk/JN-SW-4170/Components/Library\libZPSNWK_JN516x.a(zps_nwk_rt.o)
                              zps_nwk_nib.o (symbol from plugin) (zps_vExpireOldRoutes)
../../../../sdk/JN-SW-4170/Components/Library\libZPSNWK_JN516x.a(zps_nwk_sec.o)
                              zps_apl_sec.o (symbol from plugin) (ZPS_bSecEncrypt)
../../../../sdk/JN-SW-4170/Components/Library\libZPSNWK_JN516x.a(zps_nwk_slist.o)
                              zps_nwk_mcps.o (symbol from plugin) (zps_vNwkSlistInit)
../../../../sdk/JN-SW-4170/Components/Library\libZPSNWK_JN516x.a(zps_nwk_subghz.o)
                              zps_nwk_lkst.o (symbol from plugin) (ZPS_vLinkPowerDeltaTimerExpiry)
../../../../sdk/JN-SW-4170/Components/Library\libZPSNWK_JN516x.a(zps_nwk_actv_st.o)
                              zps_nwk_main.o (symbol from plugin) (zps_eNwkActvStInit)
../../../../sdk/JN-SW-4170/Components/Library\libZPSNWK_JN516x.a(zps_nwk_btt.o)
                              zps_nwk_main.o (symbol from plugin) (zps_vNwkBttMgrInit)
../../../../sdk/JN-SW-4170/Components/Library\libZPSNWK_JN516x.a(zps_nwk_disc.o)
                              zps_nwk_actv_st.o (symbol from plugin) (zps_vNwkHandleCmeNwkDiscReq)
../../../../sdk/JN-SW-4170/Components/Library\libZPSNWK_JN516x.a(zps_nwk_disc_st.o)
                              zps_nwk_main.o (symbol from plugin) (zps_eNwkDiscStInit)
../../../../sdk/JN-SW-4170/Components/Library\libZPSNWK_JN516x.a(zps_nwk_form_st.o)
                              zps_nwk_main.o (symbol from plugin) (zps_eNwkFormStInit)
../../../../sdk/JN-SW-4170/Components/Library\libZPSNWK_JN516x.a(zps_nwk_frm.o)
                              zps_nwk_lkst.o (symbol from plugin) (zps_eDefaultDataDcfm)
../../../../sdk/JN-SW-4170/Components/Library\libZPSNWK_JN516x.a(zps_nwk_idle_st.o)
                              zps_nwk_nlme.o (symbol from plugin) (zps_vNwkIdleStHandleCme)
../../../../sdk/JN-SW-4170/Components/Library\libZPSNWK_JN516x.a(zps_nwk_join.o)
                              zps_nwk_actv_st.o (symbol from plugin) (zps_vNwkHandleCmeDirectJoinReq)
../../../../sdk/JN-SW-4170/Components/Library\libZPSNWK_JN516x.a(zps_nwk_join_st.o)
                              zps_nwk_join.o (symbol from plugin) (zps_eRejoinDataDcfm)
../../../../sdk/JN-SW-4170/Components/Library\libZPSNWK_JN516x.a(zps_nwk_mac.o)
                              zps_nwk_maint.o (symbol from plugin) (MAC_u64GetExtAddr)
../../../../sdk/JN-SW-4170/Components/Library\libZPSNWK_JN516x.a(zps_nwk_scan.o)
                              zps_nwk_disc.o (symbol from plugin) (zps_sNwkLibSubmitScan)
../../../../sdk/JN-SW-4170/Components/Library\libZPSNWK_JN516x.a(zps_nwk_sync.o)
                              zps_nwk_actv_st.o (symbol from plugin) (zps_vNwkHandleCmeSyncReq)
../../../../sdk/JN-SW-4170/Components/Library\libZPSNWK_JN516x.a(zps_nwk_intf.o)
                              zps_nwk_actv_st.o (symbol from plugin) (zps_vNwkHandleCmeSetInterface)
../../../../sdk/JN-SW-4170/Components/Library\libZPSNWK_JN516x.a(zps_nwk_form.o)
                              zps_nwk_idle_st.o (symbol from plugin) (zps_vNwkHandleCmeIdleNwkFormReq)
../../../../sdk/JN-SW-4170/Components/Library\libRecal_JN516x.a(JN5148ReCal.o)
                              ../../ExtendedColorLight/Build/app_manage_temperature.o (symbol from plugin) (eAHI_AttemptCalibration)
../../../../sdk/JN-SW-4170/Components/Library\libMiniMac_JN5169.a(Mini_Main.o)
                              zps_miniMac.o (symbol from plugin) (vMiniMac_MLME_SetReq_PanId)
../../../../sdk/JN-SW-4170/Components/Library\libMiniMac_JN5169.a(Mini_Association.o)
                              zps_miniMac.o (symbol from plugin) (eMiniMac_MLME_AssociateReq)
../../../../sdk/JN-SW-4170/Components/Library\libMiniMac_JN5169.a(Mini_Mcps.o)
                              zps_miniMac.o (symbol from plugin) (psGetTxFrameBuffer)
../../../../sdk/JN-SW-4170/Components/Library\libMiniMac_JN5169.a(Mini_Poll.o)
                              zps_miniMac.o (symbol from plugin) (eMiniMac_MLME_DataReq)
../../../../sdk/JN-SW-4170/Components/Library\libMiniMac_JN5169.a(Mini_Running.o)
                              Mini_Association.o (symbol from plugin) (vRunningRxCallback)
../../../../sdk/JN-SW-4170/Components/Library\libMiniMac_JN5169.a(Mini_Scan.o)
                              zps_miniMac.o (symbol from plugin) (eMiniMac_MLME_ScanReq)
../../../../sdk/JN-SW-4170/Components/Library\libMiniMac_JN5169.a(Mini_TimerServer.o)
                              Mini_Scan.o (symbol from plugin) (vTimerRestartScanTimer)
../../../../sdk/JN-SW-4170/Components/Library\libMiniMac_JN5169.a(Mini_TxRx.o)
                              Mini_Mcps.o (symbol from plugin) (vAddToTxQueue)
../../../../sdk/JN-SW-4170/Components/Library\libMiniMac_JN5169.a(Endian.o)
                              Mini_Main.o (symbol from plugin) (vFromU16ToLe)
../../../../sdk/JN-SW-4170/Components/Library\libMiniMacShim_JN516x.a(Mini_Shim.o)
                              ../../ExtendedColorLight/Build/bdb_tl_router_target.o (symbol from plugin) (eAppApiDefPlmeSet)
../../../../sdk/JN-SW-4170/Components/Library\libMMAC_JN5169.a(MMAC.o)
                              Mini_Main.o (symbol from plugin) (vMMAC_Enable)
../../../../sdk/JN-SW-4170/Components/Library\libMMAC_JN5169.a(MMAC_RadioInit_JN5169.o)
                              Mini_Main.o (symbol from plugin) (vMMAC_ConfigureRadio)
../../../../sdk/JN-SW-4170/Components/Library\libJPT_JN5169.a(JPT_RadioTxPowerTests.o)
                              MMAC.o (symbol from plugin) (vJPT_TxPowerAdjust)
../../../../sdk/JN-SW-4170/Components/Library\libJPT_JN5169.a(JPT_RadioEnergyDetect.o)
                              zps_miniMac.o (symbol from plugin) (i16JPT_ConvertEnergyTodBm)
../../../../sdk/JN-SW-4170/Components/Library\libJPT_JN5169.a(JPT_RadioSettings_JN5169.o)
                              MMAC_RadioInit_JN5169.o (symbol from plugin) (bJPT_InitRadio_JN5169)
../../../../sdk/JN-SW-4170/Components/Library\libJPT_JN5169.a(RegisterAccess.o)
                              JPT_RadioEnergyDetect.o (symbol from plugin) (vRMW_REG32)
../../../../sdk/JN-SW-4170/Components/Library\libJPT_JN5169.a(JPT_RadioFunctions.o)
                              JPT_RadioEnergyDetect.o (symbol from plugin) (bJPT_VcoLock)
../../../../sdk/JN-SW-4170/Components/Library\libAes_JN516x.a(AEScoprocessorAPI.o)
                              ../../ExtendedColorLight/Build/GreenPowerCommon.o (symbol from plugin) (bACI_WriteKey)
../../../../sdk/JN-SW-4170/Components/Library\libAes_JN516x.a(AEScoprocessorECB.o)
                              ../../ExtendedColorLight/Build/OTA.o (symbol from plugin) (bACI_ECBencodeStripe)
../../../../sdk/JN-SW-4170/Components/Library\libAes_JN516x.a(AES_CCM_Star.o)
                              ../../ExtendedColorLight/Build/GreenPowerCommon.o (symbol from plugin) (vACI_OptimisedCcmStar)
../../../../sdk/JN-SW-4170/Components/Library\libHardwareApi_JN5169.a(AHI_Analogue.o)
                              ../../ExtendedColorLight/Build/app_manage_temperature.o (symbol from plugin) (bAHI_APRegulatorEnabled)
../../../../sdk/JN-SW-4170/Components/Library\libHardwareApi_JN5169.a(AHI_Dio.o)
                              ../../ExtendedColorLight/Build/app_buttons.o (symbol from plugin) (vAHI_DioSetDirection)
../../../../sdk/JN-SW-4170/Components/Library\libHardwareApi_JN5169.a(AHI_Reset.o)
                              ../../ExtendedColorLight/Build/app_zlo_light_node.o (symbol from plugin) (vAHI_SwReset)
../../../../sdk/JN-SW-4170/Components/Library\libHardwareApi_JN5169.a(AHI_System.o)
                              pwrm_cold_start.o (symbol from plugin) (u8AHI_PowerStatus)
../../../../sdk/JN-SW-4170/Components/Library\libHardwareApi_JN5169.a(AHI_Timer.o)
                              AHI_System.o (symbol from plugin) (vAHI_TimerEnable)
../../../../sdk/JN-SW-4170/Components/Library\libHardwareApi_JN5169.a(AHI_TimerInt.o)
                              AHI_System.o (symbol from plugin) (vAHI_Timer0RegisterCallback)
../../../../sdk/JN-SW-4170/Components/Library\libHardwareApi_JN5169.a(AHI_WakeTimer.o)
                              pwrm.o (symbol from plugin) (vAHI_WakeTimerEnable)
../../../../sdk/JN-SW-4170/Components/Library\libHardwareApi_JN5169.a(AHI_Flash.o)
                              AHI_System.o (symbol from plugin) (vAHI_FlashAndEEPROMControllerIntHandler)
../../../../sdk/JN-SW-4170/Components/Library\libHardwareApi_JN5169.a(AHI_FlashPoll.o)
                              PdmNoRtosStub.o (symbol from plugin) (bAHI_FlashGetMutex)
../../../../sdk/JN-SW-4170/Components/Library\libHardwareApi_JN5169.a(AHI_Infrared.o)
                              AHI_TimerInt.o (symbol from plugin) (vAHI_IntHandlerInfrared)
../../../../sdk/JN-SW-4170/Components/Library\libHardwareApi_JN5169.a(InternalFlashApi.o)
                              AHI_Flash.o (symbol from plugin) (bFlashErase)
../../../../sdk/JN-SW-4170/Components/Library\libHardwareApi_JN5169.a(AHI_FlashIndexSector.o)
                              zps_apl_zdo_nwkmanager.o (symbol from plugin) (bAHI_ReadUserData)
../../../../sdk/JN-SW-4170/Components/Library\libHardwareApi_JN5169.a(EEP_EEPROM.o)
                              PDM_Create.o (symbol from plugin) (u16AHI_InitialiseEEP)
../../../../sdk/JN-SW-4170/Components/Library\libHardwareApi_JN5169.a(AHI_TickTimer.o)
                              ../../ExtendedColorLight/Build/ZTimer.o (symbol from plugin) (vAHI_TickTimerWrite)
../../../../sdk/JN-SW-4170/Components/Library\libHardwareApi_JN5169.a(AHI_Interrupt.o)
                              MMAC.o (symbol from plugin) (vAHI_InterruptSetPriority)
../../../../sdk/JN-SW-4170/Components/Library\libHardwareApi_JN5169.a(AHI_Spi.o)
                              AHI_Flash.o (symbol from plugin) (vAHI_SpiConfigure)
../../../../sdk/JN-SW-4170/Components/Library\libMicroSpecific_JN516x.a(MicroInt_ba.o)
                              PdmNoRtosStub.o (symbol from plugin) (vMicroIntEnableOnly)
../../../../sdk/JN-SW-4170/Components/Library\libMicroSpecific_JN516x.a(MicroSyscall_ba.o)
                              AHI_Reset.o (symbol from plugin) (vMicroSyscall)
../../../../sdk/JN-SW-4170/Components/Library\libBoot_JN516x.a(Heap.o)
                              (u32HeapStart)
../../../../sdk/JN-SW-4170/Components/Library\libBoot_JN516x.a(ExceptionHandler.o)
                              MMAC.o (symbol from plugin) (isr_handlers)
../../../../sdk/JN-SW-4170/Platform/DK4/Library\libBoardLib_JN516x.a(LightingBoard.o)
                              ../../ExtendedColorLight/Build/DriverBulb_DR1175.o (symbol from plugin) (bRGB_LED_Enable)
../../../../sdk/JN-SW-4170/Platform/DK4/Library\libBoardLib_JN516x.a(PCA9634.o)
                              LightingBoard.o (symbol from plugin) (bPCA9634_SetGroupLevel)
../../../../sdk/JN-SW-4170/Platform/DK4/Library\libBoardLib_JN516x.a(SMBus.o)
                              PCA9634.o (symbol from plugin) (bSMBusWrite)
../../../../sdk/JN-SW-4170/Components/Library\libZPSMAC_Mini_SOC_JN516x.a(zps_mac_if_table.o)
                              zps_nwk_intf.o (symbol from plugin) (ZPS_u8MacIFTGetNumInterfaces)
../../../../sdk/JN-SW-4170/Components/Library\libZPSTSV_JN516x.a(zps_tsv.o)
                              zps_apl_zdo_nwkmanager.o (symbol from plugin) (ZPS_vTsvInit)
../../../../sdk/JN-SW-4170/Components/Library\libAES_SW_JN516x.a(aes_sw_hmac_mmo.o)
                              zps_apl_sec.o (symbol from plugin) (AESSW_vHMAC_MMO)
../../../../sdk/JN-SW-4170/Components/Library\libHardwareApi_JN5169.a(AHI_Si.o)
                              PCA9634.o (symbol from plugin) (vAHI_SiMasterConfigure)
c:/nxp/bstudio_nxp/sdk/tools/ba-elf-ba2-r36379/bin/../lib/gcc/ba-elf/4.7.4/../../../../ba-elf/lib/mcpu_jn51xx_sizeopt\libc.a(lib_a-memcmp.o)
                              C:\Users\nxf40467\AppData\Local\Temp\ccjQdhik.ltrans0.ltrans.o (memcmp)
c:/nxp/bstudio_nxp/sdk/tools/ba-elf-ba2-r36379/bin/../lib/gcc/ba-elf/4.7.4/../../../../ba-elf/lib/mcpu_jn51xx_sizeopt\libc.a(lib_a-memcpy.o)
                              C:\Users\nxf40467\AppData\Local\Temp\ccjQdhik.ltrans0.ltrans.o (memcpy)
c:/nxp/bstudio_nxp/sdk/tools/ba-elf-ba2-r36379/bin/../lib/gcc/ba-elf/4.7.4/../../../../ba-elf/lib/mcpu_jn51xx_sizeopt\libc.a(lib_a-memset.o)
                              C:\Users\nxf40467\AppData\Local\Temp\ccjQdhik.ltrans0.ltrans.o (memset)
c:/nxp/bstudio_nxp/sdk/tools/ba-elf-ba2-r36379/bin/../lib/gcc/ba-elf/4.7.4/../../../../ba-elf/lib/mcpu_jn51xx_sizeopt\libc.a(lib_a-strlen.o)
                              C:\Users\nxf40467\AppData\Local\Temp\ccjQdhik.ltrans23.ltrans.o (strlen)
c:/nxp/bstudio_nxp/sdk/tools/ba-elf-ba2-r36379/bin/../lib/gcc/ba-elf/4.7.4/../../../../ba-elf/lib/mcpu_jn51xx_sizeopt\libc.a(lib_a-strncpy.o)
                              C:\Users\nxf40467\AppData\Local\Temp\ccjQdhik.ltrans4.ltrans.o (strncpy)
c:/nxp/bstudio_nxp/sdk/tools/ba-elf-ba2-r36379/bin/../lib/gcc/ba-elf/4.7.4/mcpu_jn51xx_sizeopt\libgcc.a(__udivsi3.o)
                              C:\Users\nxf40467\AppData\Local\Temp\ccjQdhik.ltrans4.ltrans.o (__udivsi3)
c:/nxp/bstudio_nxp/sdk/tools/ba-elf-ba2-r36379/bin/../lib/gcc/ba-elf/4.7.4/mcpu_jn51xx_sizeopt\libgcc.a(__divsi3.o)
                              C:\Users\nxf40467\AppData\Local\Temp\ccjQdhik.ltrans2.ltrans.o (__divsi3)
c:/nxp/bstudio_nxp/sdk/tools/ba-elf-ba2-r36379/bin/../lib/gcc/ba-elf/4.7.4/mcpu_jn51xx_sizeopt\libgcc.a(__umodsi3.o)
                              C:\Users\nxf40467\AppData\Local\Temp\ccjQdhik.ltrans4.ltrans.o (__umodsi3)
c:/nxp/bstudio_nxp/sdk/tools/ba-elf-ba2-r36379/bin/../lib/gcc/ba-elf/4.7.4/mcpu_jn51xx_sizeopt\libgcc.a(__modsi3.o)
                              C:\Users\nxf40467\AppData\Local\Temp\ccjQdhik.ltrans6.ltrans.o (__modsi3)
c:/nxp/bstudio_nxp/sdk/tools/ba-elf-ba2-r36379/bin/../lib/gcc/ba-elf/4.7.4/mcpu_jn51xx_sizeopt\libgcc.a(_fixunssfsi.o)
                              C:\Users\nxf40467\AppData\Local\Temp\ccjQdhik.ltrans2.ltrans.o (__fixunssfsi)
c:/nxp/bstudio_nxp/sdk/tools/ba-elf-ba2-r36379/bin/../lib/gcc/ba-elf/4.7.4/mcpu_jn51xx_sizeopt\libgcc.a(_fixunsdfsi.o)
                              C:\Users\nxf40467\AppData\Local\Temp\ccjQdhik.ltrans1.ltrans.o (__fixunsdfsi)
c:/nxp/bstudio_nxp/sdk/tools/ba-elf-ba2-r36379/bin/../lib/gcc/ba-elf/4.7.4/mcpu_jn51xx_sizeopt\libgcc.a(_divdi3.o)
                              C:\Users\nxf40467\AppData\Local\Temp\ccjQdhik.ltrans3.ltrans.o (__divdi3)
c:/nxp/bstudio_nxp/sdk/tools/ba-elf-ba2-r36379/bin/../lib/gcc/ba-elf/4.7.4/mcpu_jn51xx_sizeopt\libgcc.a(_udivdi3.o)
                              C:\Users\nxf40467\AppData\Local\Temp\ccjQdhik.ltrans3.ltrans.o (__udivdi3)
c:/nxp/bstudio_nxp/sdk/tools/ba-elf-ba2-r36379/bin/../lib/gcc/ba-elf/4.7.4/mcpu_jn51xx_sizeopt\libgcc.a(addsf3.o)
                              C:\Users\nxf40467\AppData\Local\Temp\ccjQdhik.ltrans1.ltrans.o (__addsf3)
c:/nxp/bstudio_nxp/sdk/tools/ba-elf-ba2-r36379/bin/../lib/gcc/ba-elf/4.7.4/mcpu_jn51xx_sizeopt\libgcc.a(divsf3.o)
                              C:\Users\nxf40467\AppData\Local\Temp\ccjQdhik.ltrans1.ltrans.o (__divsf3)
c:/nxp/bstudio_nxp/sdk/tools/ba-elf-ba2-r36379/bin/../lib/gcc/ba-elf/4.7.4/mcpu_jn51xx_sizeopt\libgcc.a(eqsf2.o)
                              C:\Users\nxf40467\AppData\Local\Temp\ccjQdhik.ltrans1.ltrans.o (__eqsf2)
c:/nxp/bstudio_nxp/sdk/tools/ba-elf-ba2-r36379/bin/../lib/gcc/ba-elf/4.7.4/mcpu_jn51xx_sizeopt\libgcc.a(gesf2.o)
                              C:\Users\nxf40467\AppData\Local\Temp\ccjQdhik.ltrans1.ltrans.o (__gesf2)
c:/nxp/bstudio_nxp/sdk/tools/ba-elf-ba2-r36379/bin/../lib/gcc/ba-elf/4.7.4/mcpu_jn51xx_sizeopt\libgcc.a(lesf2.o)
                              C:\Users\nxf40467\AppData\Local\Temp\ccjQdhik.ltrans1.ltrans.o (__lesf2)
c:/nxp/bstudio_nxp/sdk/tools/ba-elf-ba2-r36379/bin/../lib/gcc/ba-elf/4.7.4/mcpu_jn51xx_sizeopt\libgcc.a(mulsf3.o)
                              C:\Users\nxf40467\AppData\Local\Temp\ccjQdhik.ltrans1.ltrans.o (__mulsf3)
c:/nxp/bstudio_nxp/sdk/tools/ba-elf-ba2-r36379/bin/../lib/gcc/ba-elf/4.7.4/mcpu_jn51xx_sizeopt\libgcc.a(subsf3.o)
                              C:\Users\nxf40467\AppData\Local\Temp\ccjQdhik.ltrans1.ltrans.o (__subsf3)
c:/nxp/bstudio_nxp/sdk/tools/ba-elf-ba2-r36379/bin/../lib/gcc/ba-elf/4.7.4/mcpu_jn51xx_sizeopt\libgcc.a(fixsfsi.o)
                              C:\Users\nxf40467\AppData\Local\Temp\ccjQdhik.ltrans1.ltrans.o (__fixsfsi)
c:/nxp/bstudio_nxp/sdk/tools/ba-elf-ba2-r36379/bin/../lib/gcc/ba-elf/4.7.4/mcpu_jn51xx_sizeopt\libgcc.a(floatunsisf.o)
                              C:\Users\nxf40467\AppData\Local\Temp\ccjQdhik.ltrans1.ltrans.o (__floatunsisf)
c:/nxp/bstudio_nxp/sdk/tools/ba-elf-ba2-r36379/bin/../lib/gcc/ba-elf/4.7.4/mcpu_jn51xx_sizeopt\libgcc.a(adddf3.o)
                              C:\Users\nxf40467\AppData\Local\Temp\ccjQdhik.ltrans1.ltrans.o (__adddf3)
c:/nxp/bstudio_nxp/sdk/tools/ba-elf-ba2-r36379/bin/../lib/gcc/ba-elf/4.7.4/mcpu_jn51xx_sizeopt\libgcc.a(divdf3.o)
                              C:\Users\nxf40467\AppData\Local\Temp\ccjQdhik.ltrans1.ltrans.o (__divdf3)
c:/nxp/bstudio_nxp/sdk/tools/ba-elf-ba2-r36379/bin/../lib/gcc/ba-elf/4.7.4/mcpu_jn51xx_sizeopt\libgcc.a(gedf2.o)
                              c:/nxp/bstudio_nxp/sdk/tools/ba-elf-ba2-r36379/bin/../lib/gcc/ba-elf/4.7.4/mcpu_jn51xx_sizeopt\libgcc.a(_fixunsdfsi.o) (__gedf2)
c:/nxp/bstudio_nxp/sdk/tools/ba-elf-ba2-r36379/bin/../lib/gcc/ba-elf/4.7.4/mcpu_jn51xx_sizeopt\libgcc.a(muldf3.o)
                              C:\Users\nxf40467\AppData\Local\Temp\ccjQdhik.ltrans1.ltrans.o (__muldf3)
c:/nxp/bstudio_nxp/sdk/tools/ba-elf-ba2-r36379/bin/../lib/gcc/ba-elf/4.7.4/mcpu_jn51xx_sizeopt\libgcc.a(subdf3.o)
                              C:\Users\nxf40467\AppData\Local\Temp\ccjQdhik.ltrans1.ltrans.o (__subdf3)
c:/nxp/bstudio_nxp/sdk/tools/ba-elf-ba2-r36379/bin/../lib/gcc/ba-elf/4.7.4/mcpu_jn51xx_sizeopt\libgcc.a(fixdfsi.o)
                              c:/nxp/bstudio_nxp/sdk/tools/ba-elf-ba2-r36379/bin/../lib/gcc/ba-elf/4.7.4/mcpu_jn51xx_sizeopt\libgcc.a(_fixunsdfsi.o) (__fixdfsi)
c:/nxp/bstudio_nxp/sdk/tools/ba-elf-ba2-r36379/bin/../lib/gcc/ba-elf/4.7.4/mcpu_jn51xx_sizeopt\libgcc.a(extendsfdf2.o)
                              C:\Users\nxf40467\AppData\Local\Temp\ccjQdhik.ltrans1.ltrans.o (__extendsfdf2)
c:/nxp/bstudio_nxp/sdk/tools/ba-elf-ba2-r36379/bin/../lib/gcc/ba-elf/4.7.4/mcpu_jn51xx_sizeopt\libgcc.a(truncdfsf2.o)
                              C:\Users\nxf40467\AppData\Local\Temp\ccjQdhik.ltrans1.ltrans.o (__truncdfsf2)
../../../../sdk/JN-SW-4170/Components/Library\libZPSAPL_JN516x.a(zps_apl_version_lc.o)
                              C:\Users\nxf40467\AppData\Local\Temp\ccjQdhik.ltrans0.ltrans.o (ZPS_APL_Version_3v0)
../../../../sdk/JN-SW-4170/Components/Library\libZPSNWK_JN516x.a(zps_nwk_version_lc.o)
                              C:\Users\nxf40467\AppData\Local\Temp\ccjQdhik.ltrans0.ltrans.o (ZPS_NWK_Version_3v0)
c:/nxp/bstudio_nxp/sdk/tools/ba-elf-ba2-r36379/bin/../lib/gcc/ba-elf/4.7.4/../../../../ba-elf/lib/mcpu_jn51xx_sizeopt\libm.a(lib_a-s_floor.o)
                              C:\Users\nxf40467\AppData\Local\Temp\ccjQdhik.ltrans1.ltrans.o (floor)

Allocating common symbols
Common symbol       size              file

prTickTimeAppCallback
                    0x4               AHI_TickTimer.o (symbol from plugin)
zps_TimeEvents      0x18              ../../ExtendedColorLight/Build/zps_gen.o (symbol from plugin)
prMiniMacTofRxHandler
                    0x4               Mini_Running.o (symbol from plugin)
sBeaconFilter       0xc               ../../ExtendedColorLight/Build/bdb_start.o (symbol from plugin)
au8OnOffAttributeControlBits
                    0x6               ../../ExtendedColorLight/Build/OnOff.o (symbol from plugin)
in                  0x10              ../../ExtendedColorLight/Build/ecb_decrypt.o (symbol from plugin)
au8GroupsAttributeControlBits
                    0x2               ../../ExtendedColorLight/Build/Groups.o (symbol from plugin)
uAttributeVal       0x10              ../../ExtendedColorLight/Build/zcl_readAttributesResponseHandle.o (symbol from plugin)
g_bLegacyHwBugEmulation
                    0x1               AES_CCM_Star.o (symbol from plugin)
au8BallastConfigurationAttributeControlBits
                    0x1               ../../ExtendedColorLight/Build/BallastConfiguration.o (symbol from plugin)
bMAC_ImmortalIndirect
                    0x1               Mini_Mcps.o (symbol from plugin)
bRadioDoze          0x1               Mini_Running.o (symbol from plugin)
OTA_PersistedDataPDDesc
                    0x18              ../../ExtendedColorLight/Build/app_ota_client.o (symbol from plugin)
au8GPZCLEvent       0x2               ../../ExtendedColorLight/Build/app_main.o (symbol from plugin)
prMiniMac_u32BbcIntCallback
                    0x4               Mini_Main.o (symbol from plugin)
asBindServerBufferedPDURecord
                    0x118             ../../ExtendedColorLight/Build/zcl.o (symbol from plugin)
au64ExtPanListForBeaconFilter
                    0x8               ../../ExtendedColorLight/Build/bdb_start.o (symbol from plugin)
sTxBiDirTimer       0x10              ../../ExtendedColorLight/Build/zps_gen.o (symbol from plugin)
au8ZllCommissionAttributeControlBits
                    0x1               ../../ExtendedColorLight/Build/zll_commission.o (symbol from plugin)
Key                 0x10              ../../ExtendedColorLight/Build/ecb_decrypt.o (symbol from plugin)
au8AlarmsAttributeControlBits
                    0x1               ../../ExtendedColorLight/Build/Alarms.o (symbol from plugin)
sJPT_TxBuff         0x11c             JPT_RadioEnergyDetect.o (symbol from plugin)
au8IdentifyAttributeControlBits
                    0x3               ../../ExtendedColorLight/Build/Identify.o (symbol from plugin)
zps_msgMcpsDcfmInd  0x18              ../../ExtendedColorLight/Build/zps_gen.o (symbol from plugin)
bMiniMacConfig_DiscardUnsuccessfulAssocResponses
                    0x1               Mini_Association.o (symbol from plugin)
zps_msgMlmeDcfmInd  0x18              ../../ExtendedColorLight/Build/zps_gen.o (symbol from plugin)
out                 0x10              ../../ExtendedColorLight/Build/ecb_decrypt.o (symbol from plugin)
sJPT_RxBuff         0x11c             JPT_RadioEnergyDetect.o (symbol from plugin)
au8ZllUtilityAttributeControlBits
                    0x1               ../../ExtendedColorLight/Build/zll_utility.o (symbol from plugin)
au8ColourControlAttributeControlBits
                    0x1f              ../../ExtendedColorLight/Build/ColourControl.o (symbol from plugin)
au8LevelControlAttributeControlBits
                    0x6               ../../ExtendedColorLight/Build/LevelControl.o (symbol from plugin)
au8DiagnosticsClusterAttributeControlBits
                    0x1               ../../ExtendedColorLight/Build/Diagnostics.o (symbol from plugin)
au8PowerConfigurationAttributeControlBits
                    0x1               ../../ExtendedColorLight/Build/PowerConfiguration.o (symbol from plugin)
au8BasicClusterAttributeControlBits
                    0xe               ../../ExtendedColorLight/Build/Basic.o (symbol from plugin)
sTxAgingTimer       0x1c              ../../ExtendedColorLight/Build/zps_gen.o (symbol from plugin)
au8ClientGreenPowerClusterAttributeControlBits
                    0x3               ../../ExtendedColorLight/Build/GreenPower.o (symbol from plugin)
zps_msgMcpsDcfm     0x18              ../../ExtendedColorLight/Build/zps_gen.o (symbol from plugin)
au8DeviceTempConfigClusterAttributeControlBits
                    0x1               ../../ExtendedColorLight/Build/DeviceTemperatureConfiguration.o (symbol from plugin)
sStartParams        0x48              ../../ExtendedColorLight/Build/bdb_tl_router_target.o (symbol from plugin)
au8ScenesAttributeControlBits
                    0x7               ../../ExtendedColorLight/Build/Scenes.o (symbol from plugin)
au8ServerGreenPowerClusterAttributeControlBits
                    0xc               ../../ExtendedColorLight/Build/GreenPower.o (symbol from plugin)
gu16PwmLastValue    0x2               LightingBoard.o (symbol from plugin)

Discarded input sections

 .data          0x0000000000000000        0x0 ../../ExtendedColorLight/Build/irq_JN516x.o
 .bss           0x0000000000000000        0x0 ../../ExtendedColorLight/Build/irq_JN516x.o
 .data          0x0000000000000000        0x0 ../../ExtendedColorLight/Build/portasm_JN516x.o
 .bss           0x0000000000000000        0x0 ../../ExtendedColorLight/Build/portasm_JN516x.o
 .text          0x0000000000000000        0x0 ../../ExtendedColorLight/Build/port_JN516x.o (symbol from plugin)
 .data          0x0000000000000000        0x0 C:\Users\nxf40467\AppData\Local\Temp\ccjQdhik.ltrans0.ltrans.o
 .data          0x0000000000000000        0x0 C:\Users\nxf40467\AppData\Local\Temp\ccjQdhik.ltrans4.ltrans.o
 .data          0x0000000000000000        0x0 C:\Users\nxf40467\AppData\Local\Temp\ccjQdhik.ltrans6.ltrans.o
 .data          0x0000000000000000        0x0 C:\Users\nxf40467\AppData\Local\Temp\ccjQdhik.ltrans8.ltrans.o
 .data          0x0000000000000000        0x0 C:\Users\nxf40467\AppData\Local\Temp\ccjQdhik.ltrans10.ltrans.o
 .rodata        0x0000000000000000        0x4 C:\Users\nxf40467\AppData\Local\Temp\ccjQdhik.ltrans10.ltrans.o
 .data          0x0000000000000000        0x0 C:\Users\nxf40467\AppData\Local\Temp\ccjQdhik.ltrans11.ltrans.o
 .data          0x0000000000000000        0x0 C:\Users\nxf40467\AppData\Local\Temp\ccjQdhik.ltrans12.ltrans.o
 .data          0x0000000000000000        0x0 C:\Users\nxf40467\AppData\Local\Temp\ccjQdhik.ltrans16.ltrans.o
 .bss           0x0000000000000000        0x0 C:\Users\nxf40467\AppData\Local\Temp\ccjQdhik.ltrans16.ltrans.o
 .data          0x0000000000000000        0x0 C:\Users\nxf40467\AppData\Local\Temp\ccjQdhik.ltrans18.ltrans.o
 .data          0x0000000000000000        0x0 C:\Users\nxf40467\AppData\Local\Temp\ccjQdhik.ltrans19.ltrans.o
 .data          0x0000000000000000        0x0 C:\Users\nxf40467\AppData\Local\Temp\ccjQdhik.ltrans20.ltrans.o
 .data          0x0000000000000000        0x0 C:\Users\nxf40467\AppData\Local\Temp\ccjQdhik.ltrans22.ltrans.o
 .rodata        0x0000000000000000        0x3 C:\Users\nxf40467\AppData\Local\Temp\ccjQdhik.ltrans22.ltrans.o
 .data          0x0000000000000000        0x0 C:\Users\nxf40467\AppData\Local\Temp\ccjQdhik.ltrans23.ltrans.o
 .data          0x0000000000000000        0x0 C:\Users\nxf40467\AppData\Local\Temp\ccjQdhik.ltrans25.ltrans.o
 .data          0x0000000000000000        0x0 C:\Users\nxf40467\AppData\Local\Temp\ccjQdhik.ltrans26.ltrans.o
 .bss           0x0000000000000000        0x0 C:\Users\nxf40467\AppData\Local\Temp\ccjQdhik.ltrans26.ltrans.o
 .data          0x0000000000000000        0x0 C:\Users\nxf40467\AppData\Local\Temp\ccjQdhik.ltrans28.ltrans.o
 .data          0x0000000000000000        0x0 C:\Users\nxf40467\AppData\Local\Temp\ccjQdhik.ltrans29.ltrans.o
 .data          0x0000000000000000        0x0 C:\Users\nxf40467\AppData\Local\Temp\ccjQdhik.ltrans30.ltrans.o
 .data          0x0000000000000000        0x0 C:\Users\nxf40467\AppData\Local\Temp\ccjQdhik.ltrans31.ltrans.o
 .data          0x0000000000000000        0x0 c:/nxp/bstudio_nxp/sdk/tools/ba-elf-ba2-r36379/bin/../lib/gcc/ba-elf/4.7.4/../../../../ba-elf/lib/mcpu_jn51xx_sizeopt\libc.a(lib_a-memcmp.o)
 .bss           0x0000000000000000        0x0 c:/nxp/bstudio_nxp/sdk/tools/ba-elf-ba2-r36379/bin/../lib/gcc/ba-elf/4.7.4/../../../../ba-elf/lib/mcpu_jn51xx_sizeopt\libc.a(lib_a-memcmp.o)
 .data          0x0000000000000000        0x0 c:/nxp/bstudio_nxp/sdk/tools/ba-elf-ba2-r36379/bin/../lib/gcc/ba-elf/4.7.4/../../../../ba-elf/lib/mcpu_jn51xx_sizeopt\libc.a(lib_a-memcpy.o)
 .bss           0x0000000000000000        0x0 c:/nxp/bstudio_nxp/sdk/tools/ba-elf-ba2-r36379/bin/../lib/gcc/ba-elf/4.7.4/../../../../ba-elf/lib/mcpu_jn51xx_sizeopt\libc.a(lib_a-memcpy.o)
 .data          0x0000000000000000        0x0 c:/nxp/bstudio_nxp/sdk/tools/ba-elf-ba2-r36379/bin/../lib/gcc/ba-elf/4.7.4/../../../../ba-elf/lib/mcpu_jn51xx_sizeopt\libc.a(lib_a-memset.o)
 .bss           0x0000000000000000        0x0 c:/nxp/bstudio_nxp/sdk/tools/ba-elf-ba2-r36379/bin/../lib/gcc/ba-elf/4.7.4/../../../../ba-elf/lib/mcpu_jn51xx_sizeopt\libc.a(lib_a-memset.o)
 .data          0x0000000000000000        0x0 c:/nxp/bstudio_nxp/sdk/tools/ba-elf-ba2-r36379/bin/../lib/gcc/ba-elf/4.7.4/../../../../ba-elf/lib/mcpu_jn51xx_sizeopt\libc.a(lib_a-strlen.o)
 .bss           0x0000000000000000        0x0 c:/nxp/bstudio_nxp/sdk/tools/ba-elf-ba2-r36379/bin/../lib/gcc/ba-elf/4.7.4/../../../../ba-elf/lib/mcpu_jn51xx_sizeopt\libc.a(lib_a-strlen.o)
 .data          0x0000000000000000        0x0 c:/nxp/bstudio_nxp/sdk/tools/ba-elf-ba2-r36379/bin/../lib/gcc/ba-elf/4.7.4/../../../../ba-elf/lib/mcpu_jn51xx_sizeopt\libc.a(lib_a-strncpy.o)
 .bss           0x0000000000000000        0x0 c:/nxp/bstudio_nxp/sdk/tools/ba-elf-ba2-r36379/bin/../lib/gcc/ba-elf/4.7.4/../../../../ba-elf/lib/mcpu_jn51xx_sizeopt\libc.a(lib_a-strncpy.o)
 .data          0x0000000000000000        0x0 c:/nxp/bstudio_nxp/sdk/tools/ba-elf-ba2-r36379/bin/../lib/gcc/ba-elf/4.7.4/mcpu_jn51xx_sizeopt\libgcc.a(__udivsi3.o)
 .bss           0x0000000000000000        0x0 c:/nxp/bstudio_nxp/sdk/tools/ba-elf-ba2-r36379/bin/../lib/gcc/ba-elf/4.7.4/mcpu_jn51xx_sizeopt\libgcc.a(__udivsi3.o)
 .data          0x0000000000000000        0x0 c:/nxp/bstudio_nxp/sdk/tools/ba-elf-ba2-r36379/bin/../lib/gcc/ba-elf/4.7.4/mcpu_jn51xx_sizeopt\libgcc.a(__divsi3.o)
 .bss           0x0000000000000000        0x0 c:/nxp/bstudio_nxp/sdk/tools/ba-elf-ba2-r36379/bin/../lib/gcc/ba-elf/4.7.4/mcpu_jn51xx_sizeopt\libgcc.a(__divsi3.o)
 .data          0x0000000000000000        0x0 c:/nxp/bstudio_nxp/sdk/tools/ba-elf-ba2-r36379/bin/../lib/gcc/ba-elf/4.7.4/mcpu_jn51xx_sizeopt\libgcc.a(__umodsi3.o)
 .bss           0x0000000000000000        0x0 c:/nxp/bstudio_nxp/sdk/tools/ba-elf-ba2-r36379/bin/../lib/gcc/ba-elf/4.7.4/mcpu_jn51xx_sizeopt\libgcc.a(__umodsi3.o)
 .data          0x0000000000000000        0x0 c:/nxp/bstudio_nxp/sdk/tools/ba-elf-ba2-r36379/bin/../lib/gcc/ba-elf/4.7.4/mcpu_jn51xx_sizeopt\libgcc.a(__modsi3.o)
 .bss           0x0000000000000000        0x0 c:/nxp/bstudio_nxp/sdk/tools/ba-elf-ba2-r36379/bin/../lib/gcc/ba-elf/4.7.4/mcpu_jn51xx_sizeopt\libgcc.a(__modsi3.o)
 .data          0x0000000000000000        0x0 c:/nxp/bstudio_nxp/sdk/tools/ba-elf-ba2-r36379/bin/../lib/gcc/ba-elf/4.7.4/mcpu_jn51xx_sizeopt\libgcc.a(_fixunssfsi.o)
 .bss           0x0000000000000000        0x0 c:/nxp/bstudio_nxp/sdk/tools/ba-elf-ba2-r36379/bin/../lib/gcc/ba-elf/4.7.4/mcpu_jn51xx_sizeopt\libgcc.a(_fixunssfsi.o)
 .data          0x0000000000000000        0x0 c:/nxp/bstudio_nxp/sdk/tools/ba-elf-ba2-r36379/bin/../lib/gcc/ba-elf/4.7.4/mcpu_jn51xx_sizeopt\libgcc.a(_fixunsdfsi.o)
 .bss           0x0000000000000000        0x0 c:/nxp/bstudio_nxp/sdk/tools/ba-elf-ba2-r36379/bin/../lib/gcc/ba-elf/4.7.4/mcpu_jn51xx_sizeopt\libgcc.a(_fixunsdfsi.o)
 .data          0x0000000000000000        0x0 c:/nxp/bstudio_nxp/sdk/tools/ba-elf-ba2-r36379/bin/../lib/gcc/ba-elf/4.7.4/mcpu_jn51xx_sizeopt\libgcc.a(_divdi3.o)
 .bss           0x0000000000000000        0x0 c:/nxp/bstudio_nxp/sdk/tools/ba-elf-ba2-r36379/bin/../lib/gcc/ba-elf/4.7.4/mcpu_jn51xx_sizeopt\libgcc.a(_divdi3.o)
 .eh_frame      0x0000000000000000       0x38 c:/nxp/bstudio_nxp/sdk/tools/ba-elf-ba2-r36379/bin/../lib/gcc/ba-elf/4.7.4/mcpu_jn51xx_sizeopt\libgcc.a(_divdi3.o)
 .data          0x0000000000000000        0x0 c:/nxp/bstudio_nxp/sdk/tools/ba-elf-ba2-r36379/bin/../lib/gcc/ba-elf/4.7.4/mcpu_jn51xx_sizeopt\libgcc.a(_udivdi3.o)
 .bss           0x0000000000000000        0x0 c:/nxp/bstudio_nxp/sdk/tools/ba-elf-ba2-r36379/bin/../lib/gcc/ba-elf/4.7.4/mcpu_jn51xx_sizeopt\libgcc.a(_udivdi3.o)
 .eh_frame      0x0000000000000000       0x38 c:/nxp/bstudio_nxp/sdk/tools/ba-elf-ba2-r36379/bin/../lib/gcc/ba-elf/4.7.4/mcpu_jn51xx_sizeopt\libgcc.a(_udivdi3.o)
 .data          0x0000000000000000        0x0 c:/nxp/bstudio_nxp/sdk/tools/ba-elf-ba2-r36379/bin/../lib/gcc/ba-elf/4.7.4/mcpu_jn51xx_sizeopt\libgcc.a(addsf3.o)
 .bss           0x0000000000000000        0x0 c:/nxp/bstudio_nxp/sdk/tools/ba-elf-ba2-r36379/bin/../lib/gcc/ba-elf/4.7.4/mcpu_jn51xx_sizeopt\libgcc.a(addsf3.o)
 .data          0x0000000000000000        0x0 c:/nxp/bstudio_nxp/sdk/tools/ba-elf-ba2-r36379/bin/../lib/gcc/ba-elf/4.7.4/mcpu_jn51xx_sizeopt\libgcc.a(divsf3.o)
 .bss           0x0000000000000000        0x0 c:/nxp/bstudio_nxp/sdk/tools/ba-elf-ba2-r36379/bin/../lib/gcc/ba-elf/4.7.4/mcpu_jn51xx_sizeopt\libgcc.a(divsf3.o)
 .data          0x0000000000000000        0x0 c:/nxp/bstudio_nxp/sdk/tools/ba-elf-ba2-r36379/bin/../lib/gcc/ba-elf/4.7.4/mcpu_jn51xx_sizeopt\libgcc.a(eqsf2.o)
 .bss           0x0000000000000000        0x0 c:/nxp/bstudio_nxp/sdk/tools/ba-elf-ba2-r36379/bin/../lib/gcc/ba-elf/4.7.4/mcpu_jn51xx_sizeopt\libgcc.a(eqsf2.o)
 .data          0x0000000000000000        0x0 c:/nxp/bstudio_nxp/sdk/tools/ba-elf-ba2-r36379/bin/../lib/gcc/ba-elf/4.7.4/mcpu_jn51xx_sizeopt\libgcc.a(gesf2.o)
 .bss           0x0000000000000000        0x0 c:/nxp/bstudio_nxp/sdk/tools/ba-elf-ba2-r36379/bin/../lib/gcc/ba-elf/4.7.4/mcpu_jn51xx_sizeopt\libgcc.a(gesf2.o)
 .data          0x0000000000000000        0x0 c:/nxp/bstudio_nxp/sdk/tools/ba-elf-ba2-r36379/bin/../lib/gcc/ba-elf/4.7.4/mcpu_jn51xx_sizeopt\libgcc.a(lesf2.o)
 .bss           0x0000000000000000        0x0 c:/nxp/bstudio_nxp/sdk/tools/ba-elf-ba2-r36379/bin/../lib/gcc/ba-elf/4.7.4/mcpu_jn51xx_sizeopt\libgcc.a(lesf2.o)
 .data          0x0000000000000000        0x0 c:/nxp/bstudio_nxp/sdk/tools/ba-elf-ba2-r36379/bin/../lib/gcc/ba-elf/4.7.4/mcpu_jn51xx_sizeopt\libgcc.a(mulsf3.o)
 .bss           0x0000000000000000        0x0 c:/nxp/bstudio_nxp/sdk/tools/ba-elf-ba2-r36379/bin/../lib/gcc/ba-elf/4.7.4/mcpu_jn51xx_sizeopt\libgcc.a(mulsf3.o)
 .data          0x0000000000000000        0x0 c:/nxp/bstudio_nxp/sdk/tools/ba-elf-ba2-r36379/bin/../lib/gcc/ba-elf/4.7.4/mcpu_jn51xx_sizeopt\libgcc.a(subsf3.o)
 .bss           0x0000000000000000        0x0 c:/nxp/bstudio_nxp/sdk/tools/ba-elf-ba2-r36379/bin/../lib/gcc/ba-elf/4.7.4/mcpu_jn51xx_sizeopt\libgcc.a(subsf3.o)
 .data          0x0000000000000000        0x0 c:/nxp/bstudio_nxp/sdk/tools/ba-elf-ba2-r36379/bin/../lib/gcc/ba-elf/4.7.4/mcpu_jn51xx_sizeopt\libgcc.a(fixsfsi.o)
 .bss           0x0000000000000000        0x0 c:/nxp/bstudio_nxp/sdk/tools/ba-elf-ba2-r36379/bin/../lib/gcc/ba-elf/4.7.4/mcpu_jn51xx_sizeopt\libgcc.a(fixsfsi.o)
 .data          0x0000000000000000        0x0 c:/nxp/bstudio_nxp/sdk/tools/ba-elf-ba2-r36379/bin/../lib/gcc/ba-elf/4.7.4/mcpu_jn51xx_sizeopt\libgcc.a(floatunsisf.o)
 .bss           0x0000000000000000        0x0 c:/nxp/bstudio_nxp/sdk/tools/ba-elf-ba2-r36379/bin/../lib/gcc/ba-elf/4.7.4/mcpu_jn51xx_sizeopt\libgcc.a(floatunsisf.o)
 .data          0x0000000000000000        0x0 c:/nxp/bstudio_nxp/sdk/tools/ba-elf-ba2-r36379/bin/../lib/gcc/ba-elf/4.7.4/mcpu_jn51xx_sizeopt\libgcc.a(adddf3.o)
 .bss           0x0000000000000000        0x0 c:/nxp/bstudio_nxp/sdk/tools/ba-elf-ba2-r36379/bin/../lib/gcc/ba-elf/4.7.4/mcpu_jn51xx_sizeopt\libgcc.a(adddf3.o)
 .data          0x0000000000000000        0x0 c:/nxp/bstudio_nxp/sdk/tools/ba-elf-ba2-r36379/bin/../lib/gcc/ba-elf/4.7.4/mcpu_jn51xx_sizeopt\libgcc.a(divdf3.o)
 .bss           0x0000000000000000        0x0 c:/nxp/bstudio_nxp/sdk/tools/ba-elf-ba2-r36379/bin/../lib/gcc/ba-elf/4.7.4/mcpu_jn51xx_sizeopt\libgcc.a(divdf3.o)
 .data          0x0000000000000000        0x0 c:/nxp/bstudio_nxp/sdk/tools/ba-elf-ba2-r36379/bin/../lib/gcc/ba-elf/4.7.4/mcpu_jn51xx_sizeopt\libgcc.a(gedf2.o)
 .bss           0x0000000000000000        0x0 c:/nxp/bstudio_nxp/sdk/tools/ba-elf-ba2-r36379/bin/../lib/gcc/ba-elf/4.7.4/mcpu_jn51xx_sizeopt\libgcc.a(gedf2.o)
 .data          0x0000000000000000        0x0 c:/nxp/bstudio_nxp/sdk/tools/ba-elf-ba2-r36379/bin/../lib/gcc/ba-elf/4.7.4/mcpu_jn51xx_sizeopt\libgcc.a(muldf3.o)
 .bss           0x0000000000000000        0x0 c:/nxp/bstudio_nxp/sdk/tools/ba-elf-ba2-r36379/bin/../lib/gcc/ba-elf/4.7.4/mcpu_jn51xx_sizeopt\libgcc.a(muldf3.o)
 .data          0x0000000000000000        0x0 c:/nxp/bstudio_nxp/sdk/tools/ba-elf-ba2-r36379/bin/../lib/gcc/ba-elf/4.7.4/mcpu_jn51xx_sizeopt\libgcc.a(subdf3.o)
 .bss           0x0000000000000000        0x0 c:/nxp/bstudio_nxp/sdk/tools/ba-elf-ba2-r36379/bin/../lib/gcc/ba-elf/4.7.4/mcpu_jn51xx_sizeopt\libgcc.a(subdf3.o)
 .data          0x0000000000000000        0x0 c:/nxp/bstudio_nxp/sdk/tools/ba-elf-ba2-r36379/bin/../lib/gcc/ba-elf/4.7.4/mcpu_jn51xx_sizeopt\libgcc.a(fixdfsi.o)
 .bss           0x0000000000000000        0x0 c:/nxp/bstudio_nxp/sdk/tools/ba-elf-ba2-r36379/bin/../lib/gcc/ba-elf/4.7.4/mcpu_jn51xx_sizeopt\libgcc.a(fixdfsi.o)
 .data          0x0000000000000000        0x0 c:/nxp/bstudio_nxp/sdk/tools/ba-elf-ba2-r36379/bin/../lib/gcc/ba-elf/4.7.4/mcpu_jn51xx_sizeopt\libgcc.a(extendsfdf2.o)
 .bss           0x0000000000000000        0x0 c:/nxp/bstudio_nxp/sdk/tools/ba-elf-ba2-r36379/bin/../lib/gcc/ba-elf/4.7.4/mcpu_jn51xx_sizeopt\libgcc.a(extendsfdf2.o)
 .data          0x0000000000000000        0x0 c:/nxp/bstudio_nxp/sdk/tools/ba-elf-ba2-r36379/bin/../lib/gcc/ba-elf/4.7.4/mcpu_jn51xx_sizeopt\libgcc.a(truncdfsf2.o)
 .bss           0x0000000000000000        0x0 c:/nxp/bstudio_nxp/sdk/tools/ba-elf-ba2-r36379/bin/../lib/gcc/ba-elf/4.7.4/mcpu_jn51xx_sizeopt\libgcc.a(truncdfsf2.o)
 .text          0x0000000000000000        0x0 ../../ExtendedColorLight/Build/app_main.o (symbol from plugin)
 .text          0x0000000000000000        0x0 ../../ExtendedColorLight/Build/pdum_gen.o (symbol from plugin)
 .text          0x0000000000000000        0x0 ../../ExtendedColorLight/Build/pdum_apdu.o
 .data          0x0000000000000000        0x0 ../../ExtendedColorLight/Build/pdum_apdu.o
 .bss           0x0000000000000000        0x0 ../../ExtendedColorLight/Build/pdum_apdu.o
 .text          0x0000000000000000        0x0 ../../ExtendedColorLight/Build/zps_gen.o (symbol from plugin)
 .text          0x0000000000000000        0x0 ../../ExtendedColorLight/Build/app_start_light.o (symbol from plugin)
 .text          0x0000000000000000        0x0 ../../ExtendedColorLight/Build/app_scenes.o (symbol from plugin)
 .text          0x0000000000000000        0x0 ../../ExtendedColorLight/Build/app_pdm_convert.o (symbol from plugin)
 .text          0x0000000000000000        0x0 ../../ExtendedColorLight/Build/app_zlo_light_node.o (symbol from plugin)
 .text          0x0000000000000000        0x0 ../../ExtendedColorLight/Build/app_zcl_light_task.o (symbol from plugin)
 .text          0x0000000000000000        0x0 ../../ExtendedColorLight/Build/app_manage_temperature.o (symbol from plugin)
 .text          0x0000000000000000        0x0 ../../ExtendedColorLight/Build/app_ota_client.o (symbol from plugin)
 .text          0x0000000000000000        0x0 ../../ExtendedColorLight/Build/app_light_interpolation.o (symbol from plugin)
 .text          0x0000000000000000        0x0 ../../ExtendedColorLight/Build/app_reporting.o (symbol from plugin)
 .text          0x0000000000000000        0x0 ../../ExtendedColorLight/Build/app_power_on_counter.o (symbol from plugin)
 .text          0x0000000000000000        0x0 ../../ExtendedColorLight/Build/app_green_power.o (symbol from plugin)
 .text          0x0000000000000000        0x0 ../../ExtendedColorLight/Build/App_ExtendedColorLight.o (symbol from plugin)
 .text          0x0000000000000000        0x0 ../../ExtendedColorLight/Build/DriverBulb_DR1175.o (symbol from plugin)
 .text          0x0000000000000000        0x0 ../../ExtendedColorLight/Build/DriverBulb_Shim.o (symbol from plugin)
 .text          0x0000000000000000        0x0 ../../ExtendedColorLight/Build/app_buttons.o (symbol from plugin)
 .text          0x0000000000000000        0x0 ../../ExtendedColorLight/Build/ZQueue.o (symbol from plugin)
 .text          0x0000000000000000        0x0 ../../ExtendedColorLight/Build/ZTimer.o (symbol from plugin)
 .text          0x0000000000000000        0x0 ../../ExtendedColorLight/Build/app_zps_link_keys.o (symbol from plugin)
 .text          0x0000000000000000        0x0 ../../ExtendedColorLight/Build/GreenPower.o (symbol from plugin)
 .text          0x0000000000000000        0x0 ../../ExtendedColorLight/Build/GreenPowerCommissioningNotification.o (symbol from plugin)
 .text          0x0000000000000000        0x0 ../../ExtendedColorLight/Build/GreenPowerCommon.o (symbol from plugin)
 .text          0x0000000000000000        0x0 ../../ExtendedColorLight/Build/GreenPowerCustomCommandHandler.o (symbol from plugin)
 .text          0x0000000000000000        0x0 ../../ExtendedColorLight/Build/GreenPowerCustomCommandResponses.o (symbol from plugin)
 .text          0x0000000000000000        0x0 ../../ExtendedColorLight/Build/GreenPowerDataIndication.o (symbol from plugin)
 .text          0x0000000000000000        0x0 ../../ExtendedColorLight/Build/GreenPowerDirectCommandHandler.o (symbol from plugin)
 .text          0x0000000000000000        0x0 ../../ExtendedColorLight/Build/GreenPowerNotification.o (symbol from plugin)
 .text          0x0000000000000000        0x0 ../../ExtendedColorLight/Build/GreenPowerPairing.o (symbol from plugin)
 .text          0x0000000000000000        0x0 ../../ExtendedColorLight/Build/GreenPowerPairingConfiguration.o (symbol from plugin)
 .text          0x0000000000000000        0x0 ../../ExtendedColorLight/Build/GreenPowerPairingSearch.o (symbol from plugin)
 .text          0x0000000000000000        0x0 ../../ExtendedColorLight/Build/GreenPowerProxyCommissioningMode.o (symbol from plugin)
 .text          0x0000000000000000        0x0 ../../ExtendedColorLight/Build/GreenPowerProxyGPDHandler.o (symbol from plugin)
 .text          0x0000000000000000        0x0 ../../ExtendedColorLight/Build/GreenPowerProxyTableRequest.o (symbol from plugin)
 .text          0x0000000000000000        0x0 ../../ExtendedColorLight/Build/GreenPowerProxyTableResponse.o (symbol from plugin)
 .text          0x0000000000000000        0x0 ../../ExtendedColorLight/Build/GreenPowerResponse.o (symbol from plugin)
 .text          0x0000000000000000        0x0 ../../ExtendedColorLight/Build/GreenPowerScheduler.o (symbol from plugin)
 .text          0x0000000000000000        0x0 ../../ExtendedColorLight/Build/GreenPowerSinkTableRequest.o (symbol from plugin)
 .text          0x0000000000000000        0x0 ../../ExtendedColorLight/Build/GreenPowerSinkTableResponse.o (symbol from plugin)
 .text          0x0000000000000000        0x0 ../../ExtendedColorLight/Build/GreenPowerTranslationTableRequest.o (symbol from plugin)
 .text          0x0000000000000000        0x0 ../../ExtendedColorLight/Build/GreenPowerTranslationTableResponse.o (symbol from plugin)
 .text          0x0000000000000000        0x0 ../../ExtendedColorLight/Build/GreenPowerTranslationTableUpdate.o (symbol from plugin)
 .text          0x0000000000000000        0x0 ../../ExtendedColorLight/Build/gp.o (symbol from plugin)
 .text          0x0000000000000000        0x0 ../../ExtendedColorLight/Build/Alarms.o (symbol from plugin)
 .text          0x0000000000000000        0x0 ../../ExtendedColorLight/Build/AlarmsClientCommands.o (symbol from plugin)
 .text          0x0000000000000000        0x0 ../../ExtendedColorLight/Build/AlarmsCommandHandler.o (symbol from plugin)
 .text          0x0000000000000000        0x0 ../../ExtendedColorLight/Build/AlarmsServerCommands.o (symbol from plugin)
 .text          0x0000000000000000        0x0 ../../ExtendedColorLight/Build/AlarmsTableManager.o (symbol from plugin)
 .text          0x0000000000000000        0x0 ../../ExtendedColorLight/Build/AnalogInputBasic.o (symbol from plugin)
 .text          0x0000000000000000        0x0 ../../ExtendedColorLight/Build/AnalogOutputBasic.o (symbol from plugin)
 .text          0x0000000000000000        0x0 ../../ExtendedColorLight/Build/Basic.o (symbol from plugin)
 .text          0x0000000000000000        0x0 ../../ExtendedColorLight/Build/BasicClientCommands.o (symbol from plugin)
 .text          0x0000000000000000        0x0 ../../ExtendedColorLight/Build/BasicCommandHandler.o (symbol from plugin)
 .text          0x0000000000000000        0x0 ../../ExtendedColorLight/Build/BinaryInputBasic.o (symbol from plugin)
 .text          0x0000000000000000        0x0 ../../ExtendedColorLight/Build/BinaryOutputBasic.o (symbol from plugin)
 .text          0x0000000000000000        0x0 ../../ExtendedColorLight/Build/DeviceTemperatureConfiguration.o (symbol from plugin)
 .text          0x0000000000000000        0x0 ../../ExtendedColorLight/Build/Diagnostics.o (symbol from plugin)
 .text          0x0000000000000000        0x0 ../../ExtendedColorLight/Build/Groups.o (symbol from plugin)
 .text          0x0000000000000000        0x0 ../../ExtendedColorLight/Build/GroupsClientCommands.o (symbol from plugin)
 .text          0x0000000000000000        0x0 ../../ExtendedColorLight/Build/GroupsCommandHandler.o (symbol from plugin)
 .text          0x0000000000000000        0x0 ../../ExtendedColorLight/Build/GroupsServerCommands.o (symbol from plugin)
 .text          0x0000000000000000        0x0 ../../ExtendedColorLight/Build/GroupsTableManager.o (symbol from plugin)
 .text          0x0000000000000000        0x0 ../../ExtendedColorLight/Build/Identify.o (symbol from plugin)
 .text          0x0000000000000000        0x0 ../../ExtendedColorLight/Build/IdentifyClientCommands.o (symbol from plugin)
 .text          0x0000000000000000        0x0 ../../ExtendedColorLight/Build/IdentifyCommandHandler.o (symbol from plugin)
 .text          0x0000000000000000        0x0 ../../ExtendedColorLight/Build/IdentifyServerCommands.o (symbol from plugin)
 .text          0x0000000000000000        0x0 ../../ExtendedColorLight/Build/LevelControl.o (symbol from plugin)
 .text          0x0000000000000000        0x0 ../../ExtendedColorLight/Build/LevelControlClientCommands.o (symbol from plugin)
 .text          0x0000000000000000        0x0 ../../ExtendedColorLight/Build/LevelControlCommandHandler.o (symbol from plugin)
 .text          0x0000000000000000        0x0 ../../ExtendedColorLight/Build/MultistateInputBasic.o (symbol from plugin)
 .text          0x0000000000000000        0x0 ../../ExtendedColorLight/Build/MultistateOutputBasic.o (symbol from plugin)
 .text          0x0000000000000000        0x0 ../../ExtendedColorLight/Build/OOSC.o (symbol from plugin)
 .text          0x0000000000000000        0x0 ../../ExtendedColorLight/Build/OnOff.o (symbol from plugin)
 .text          0x0000000000000000        0x0 ../../ExtendedColorLight/Build/OnOffCommandHandler.o (symbol from plugin)
 .text          0x0000000000000000        0x0 ../../ExtendedColorLight/Build/OnOffCommands.o (symbol from plugin)
 .text          0x0000000000000000        0x0 ../../ExtendedColorLight/Build/PollControl.o (symbol from plugin)
 .text          0x0000000000000000        0x0 ../../ExtendedColorLight/Build/PollControlClientCommands.o (symbol from plugin)
 .text          0x0000000000000000        0x0 ../../ExtendedColorLight/Build/PollControlCommandHandler.o (symbol from plugin)
 .text          0x0000000000000000        0x0 ../../ExtendedColorLight/Build/PollControlServerCommands.o (symbol from plugin)
 .text          0x0000000000000000        0x0 ../../ExtendedColorLight/Build/PowerConfiguration.o (symbol from plugin)
 .text          0x0000000000000000        0x0 ../../ExtendedColorLight/Build/PowerProfile.o (symbol from plugin)
 .text          0x0000000000000000        0x0 ../../ExtendedColorLight/Build/PowerProfileClientCommands.o (symbol from plugin)
 .text          0x0000000000000000        0x0 ../../ExtendedColorLight/Build/PowerProfileCommandHandler.o (symbol from plugin)
 .text          0x0000000000000000        0x0 ../../ExtendedColorLight/Build/PowerProfileServerCommands.o (symbol from plugin)
 .text          0x0000000000000000        0x0 ../../ExtendedColorLight/Build/Scenes.o (symbol from plugin)
 .text          0x0000000000000000        0x0 ../../ExtendedColorLight/Build/ScenesClientCommands.o (symbol from plugin)
 .text          0x0000000000000000        0x0 ../../ExtendedColorLight/Build/ScenesClusterManagement.o (symbol from plugin)
 .text          0x0000000000000000        0x0 ../../ExtendedColorLight/Build/ScenesCommandHandler.o (symbol from plugin)
 .text          0x0000000000000000        0x0 ../../ExtendedColorLight/Build/ScenesServerCommands.o (symbol from plugin)
 .text          0x0000000000000000        0x0 ../../ExtendedColorLight/Build/ScenesTableManager.o (symbol from plugin)
 .text          0x0000000000000000        0x0 ../../ExtendedColorLight/Build/TC.o (symbol from plugin)
 .text          0x0000000000000000        0x0 ../../ExtendedColorLight/Build/Time.o (symbol from plugin)
 .text          0x0000000000000000        0x0 ../../ExtendedColorLight/Build/base_device.o (symbol from plugin)
 .text          0x0000000000000000        0x0 ../../ExtendedColorLight/Build/mains_power_outlet.o (symbol from plugin)
 .text          0x0000000000000000        0x0 ../../ExtendedColorLight/Build/on_off_output.o (symbol from plugin)
 .text          0x0000000000000000        0x0 ../../ExtendedColorLight/Build/plug_control.o (symbol from plugin)
 .text          0x0000000000000000        0x0 ../../ExtendedColorLight/Build/remote_control.o (symbol from plugin)
 .text          0x0000000000000000        0x0 ../../ExtendedColorLight/Build/simple_sensor.o (symbol from plugin)
 .text          0x0000000000000000        0x0 ../../ExtendedColorLight/Build/BallastConfiguration.o (symbol from plugin)
 .text          0x0000000000000000        0x0 ../../ExtendedColorLight/Build/ColourControl.o (symbol from plugin)
 .text          0x0000000000000000        0x0 ../../ExtendedColorLight/Build/ColourControlClientCommands.o (symbol from plugin)
 .text          0x0000000000000000        0x0 ../../ExtendedColorLight/Build/ColourControlCommandHandler.o (symbol from plugin)
 .text          0x0000000000000000        0x0 ../../ExtendedColorLight/Build/ColourControlConversions.o (symbol from plugin)
 .text          0x0000000000000000        0x0 ../../ExtendedColorLight/Build/colour_controller.o (symbol from plugin)
 .text          0x0000000000000000        0x0 ../../ExtendedColorLight/Build/colour_dimmable_light.o (symbol from plugin)
 .text          0x0000000000000000        0x0 ../../ExtendedColorLight/Build/colour_dimmer_switch.o (symbol from plugin)
 .text          0x0000000000000000        0x0 ../../ExtendedColorLight/Build/colour_scene_controller.o (symbol from plugin)
 .text          0x0000000000000000        0x0 ../../ExtendedColorLight/Build/colour_temperature_light.o (symbol from plugin)
 .text          0x0000000000000000        0x0 ../../ExtendedColorLight/Build/commission_endpoint.o (symbol from plugin)
 .text          0x0000000000000000        0x0 ../../ExtendedColorLight/Build/control_bridge.o (symbol from plugin)
 .text          0x0000000000000000        0x0 ../../ExtendedColorLight/Build/dimmable_ballast.o (symbol from plugin)
 .text          0x0000000000000000        0x0 ../../ExtendedColorLight/Build/dimmable_light.o (symbol from plugin)
 .text          0x0000000000000000        0x0 ../../ExtendedColorLight/Build/dimmable_plug.o (symbol from plugin)
 .text          0x0000000000000000        0x0 ../../ExtendedColorLight/Build/dimmer_switch.o (symbol from plugin)
 .text          0x0000000000000000        0x0 ../../ExtendedColorLight/Build/extended_colour_light.o (symbol from plugin)
 .text          0x0000000000000000        0x0 ../../ExtendedColorLight/Build/light_level_sensor.o (symbol from plugin)
 .text          0x0000000000000000        0x0 ../../ExtendedColorLight/Build/light_sensor.o (symbol from plugin)
 .text          0x0000000000000000        0x0 ../../ExtendedColorLight/Build/non_colour_controller.o (symbol from plugin)
 .text          0x0000000000000000        0x0 ../../ExtendedColorLight/Build/non_colour_scene_controller.o (symbol from plugin)
 .text          0x0000000000000000        0x0 ../../ExtendedColorLight/Build/occupancy_sensor.o (symbol from plugin)
 .text          0x0000000000000000        0x0 ../../ExtendedColorLight/Build/on_off_ballast.o (symbol from plugin)
 .text          0x0000000000000000        0x0 ../../ExtendedColorLight/Build/on_off_light.o (symbol from plugin)
 .text          0x0000000000000000        0x0 ../../ExtendedColorLight/Build/on_off_light_switch.o (symbol from plugin)
 .text          0x0000000000000000        0x0 ../../ExtendedColorLight/Build/on_off_plug.o (symbol from plugin)
 .text          0x0000000000000000        0x0 ../../ExtendedColorLight/Build/on_off_sensor.o (symbol from plugin)
 .text          0x0000000000000000        0x0 ../../ExtendedColorLight/Build/OTA.o (symbol from plugin)
 .text          0x0000000000000000        0x0 ../../ExtendedColorLight/Build/OTA_ClientUpgradeManager.o (symbol from plugin)
 .text          0x0000000000000000        0x0 ../../ExtendedColorLight/Build/OTA_CustomCommandHandler.o (symbol from plugin)
 .text          0x0000000000000000        0x0 ../../ExtendedColorLight/Build/OTA_CustomReceiveCommands.o (symbol from plugin)
 .text          0x0000000000000000        0x0 ../../ExtendedColorLight/Build/OTA_ServerUpgradeManager.o (symbol from plugin)
 .text          0x0000000000000000        0x0 ../../ExtendedColorLight/Build/OTA_client.o (symbol from plugin)
 .text          0x0000000000000000        0x0 ../../ExtendedColorLight/Build/OTA_common.o (symbol from plugin)
 .text          0x0000000000000000        0x0 ../../ExtendedColorLight/Build/OTA_server.o (symbol from plugin)
 .text          0x0000000000000000        0x0 ../../ExtendedColorLight/Build/Commissioning.o (symbol from plugin)
 .text          0x0000000000000000        0x0 ../../ExtendedColorLight/Build/CommissioningClientCommands.o (symbol from plugin)
 .text          0x0000000000000000        0x0 ../../ExtendedColorLight/Build/CommissioningCmdHandler.o (symbol from plugin)
 .text          0x0000000000000000        0x0 ../../ExtendedColorLight/Build/CommissioningServerCommands.o (symbol from plugin)
 .text          0x0000000000000000        0x0 ../../ExtendedColorLight/Build/zll_CommissionCmdHandler.o (symbol from plugin)
 .text          0x0000000000000000        0x0 ../../ExtendedColorLight/Build/zll_UtilityCmdHandler.o (symbol from plugin)
 .text          0x0000000000000000        0x0 ../../ExtendedColorLight/Build/zll_commission.o (symbol from plugin)
 .text          0x0000000000000000        0x0 ../../ExtendedColorLight/Build/zll_utility.o (symbol from plugin)
 .text          0x0000000000000000        0x0 ../../ExtendedColorLight/Build/dlist.o (symbol from plugin)
 .text          0x0000000000000000        0x0 ../../ExtendedColorLight/Build/zcl.o (symbol from plugin)
 .text          0x0000000000000000        0x0 ../../ExtendedColorLight/Build/zcl_CustomCommandReceive.o (symbol from plugin)
 .text          0x0000000000000000        0x0 ../../ExtendedColorLight/Build/zcl_CustomCommandSend.o (symbol from plugin)
 .text          0x0000000000000000        0x0 ../../ExtendedColorLight/Build/zcl_PDUbufferReadWrite.o (symbol from plugin)
 .text          0x0000000000000000        0x0 ../../ExtendedColorLight/Build/zcl_PDUbufferReadWriteString.o (symbol from plugin)
 .text          0x0000000000000000        0x0 ../../ExtendedColorLight/Build/zcl_WriteAttributesRequestHandle.o (symbol from plugin)
 .text          0x0000000000000000        0x0 ../../ExtendedColorLight/Build/zcl_WriteAttributesRequestSend.o (symbol from plugin)
 .text          0x0000000000000000        0x0 ../../ExtendedColorLight/Build/zcl_WriteAttributesResponseHandle.o (symbol from plugin)
 .text          0x0000000000000000        0x0 ../../ExtendedColorLight/Build/zcl_attribute.o (symbol from plugin)
 .text          0x0000000000000000        0x0 ../../ExtendedColorLight/Build/zcl_buffer.o (symbol from plugin)
 .text          0x0000000000000000        0x0 ../../ExtendedColorLight/Build/zcl_clusterCommand.o (symbol from plugin)
 .text          0x0000000000000000        0x0 ../../ExtendedColorLight/Build/zcl_command.o (symbol from plugin)
 .text          0x0000000000000000        0x0 ../../ExtendedColorLight/Build/zcl_common.o (symbol from plugin)
 .text          0x0000000000000000        0x0 ../../ExtendedColorLight/Build/zcl_configureReportingCommandHandle.o (symbol from plugin)
 .text          0x0000000000000000        0x0 ../../ExtendedColorLight/Build/zcl_configureReportingCommandSend.o (symbol from plugin)
 .text          0x0000000000000000        0x0 ../../ExtendedColorLight/Build/zcl_configureReportingResponseHandle.o (symbol from plugin)
 .text          0x0000000000000000        0x0 ../../ExtendedColorLight/Build/zcl_defaultResponse.o (symbol from plugin)
 .text          0x0000000000000000        0x0 ../../ExtendedColorLight/Build/zcl_discoverAttributesExtendedRequestHandle.o (symbol from plugin)
 .text          0x0000000000000000        0x0 ../../ExtendedColorLight/Build/zcl_discoverAttributesExtendedRequestSend.o (symbol from plugin)
 .text          0x0000000000000000        0x0 ../../ExtendedColorLight/Build/zcl_discoverAttributesExtendedResponseHandle.o (symbol from plugin)
 .text          0x0000000000000000        0x0 ../../ExtendedColorLight/Build/zcl_discoverAttributesRequestHandle.o (symbol from plugin)
 .text          0x0000000000000000        0x0 ../../ExtendedColorLight/Build/zcl_discoverAttributesRequestSend.o (symbol from plugin)
 .text          0x0000000000000000        0x0 ../../ExtendedColorLight/Build/zcl_discoverAttributesResponseHandle.o (symbol from plugin)
 .text          0x0000000000000000        0x0 ../../ExtendedColorLight/Build/zcl_discoverCommandsRequestHandle.o (symbol from plugin)
 .text          0x0000000000000000        0x0 ../../ExtendedColorLight/Build/zcl_discoverCommandsRequestSend.o (symbol from plugin)
 .text          0x0000000000000000        0x0 ../../ExtendedColorLight/Build/zcl_discoverCommandsResponseHandle.o (symbol from plugin)
 .text          0x0000000000000000        0x0 ../../ExtendedColorLight/Build/zcl_event.o (symbol from plugin)
 .text          0x0000000000000000        0x0 ../../ExtendedColorLight/Build/zcl_heap.o (symbol from plugin)
 .text          0x0000000000000000        0x0 ../../ExtendedColorLight/Build/zcl_library_options.o (symbol from plugin)
 .text          0x0000000000000000        0x0 ../../ExtendedColorLight/Build/zcl_readAttributesRequestHandle.o (symbol from plugin)
 .text          0x0000000000000000        0x0 ../../ExtendedColorLight/Build/zcl_readAttributesRequestSend.o (symbol from plugin)
 .text          0x0000000000000000        0x0 ../../ExtendedColorLight/Build/zcl_readAttributesResponseHandle.o (symbol from plugin)
 .text          0x0000000000000000        0x0 ../../ExtendedColorLight/Build/zcl_readReportingConfigurationCommandHandle.o (symbol from plugin)
 .text          0x0000000000000000        0x0 ../../ExtendedColorLight/Build/zcl_readReportingConfigurationCommandSend.o (symbol from plugin)
 .text          0x0000000000000000        0x0 ../../ExtendedColorLight/Build/zcl_readReportingConfigurationResponseHandle.o (symbol from plugin)
 .text          0x0000000000000000        0x0 ../../ExtendedColorLight/Build/zcl_reportManager.o (symbol from plugin)
 .text          0x0000000000000000        0x0 ../../ExtendedColorLight/Build/zcl_reportMaths.o (symbol from plugin)
 .text          0x0000000000000000        0x0 ../../ExtendedColorLight/Build/zcl_reportScheduler.o (symbol from plugin)
 .text          0x0000000000000000        0x0 ../../ExtendedColorLight/Build/zcl_reportStringHandling.o (symbol from plugin)
 .text          0x0000000000000000        0x0 ../../ExtendedColorLight/Build/zcl_reportStructure.o (symbol from plugin)
 .text          0x0000000000000000        0x0 ../../ExtendedColorLight/Build/zcl_search.o (symbol from plugin)
 .text          0x0000000000000000        0x0 ../../ExtendedColorLight/Build/zcl_timer.o (symbol from plugin)
 .text          0x0000000000000000        0x0 ../../ExtendedColorLight/Build/zcl_transmit.o (symbol from plugin)
 .text          0x0000000000000000        0x0 ../../ExtendedColorLight/Build/bdb_fr.o (symbol from plugin)
 .text          0x0000000000000000        0x0 ../../ExtendedColorLight/Build/bdb_start.o (symbol from plugin)
 .text          0x0000000000000000        0x0 ../../ExtendedColorLight/Build/bdb_state_machine.o (symbol from plugin)
 .text          0x0000000000000000        0x0 ../../ExtendedColorLight/Build/appZpsBeaconHandler.o (symbol from plugin)
 .text          0x0000000000000000        0x0 ../../ExtendedColorLight/Build/appZdpExtraction.o (symbol from plugin)
 .text          0x0000000000000000        0x0 ../../ExtendedColorLight/Build/bdb_ns.o (symbol from plugin)
 .text          0x0000000000000000        0x0 ../../ExtendedColorLight/Build/bdb_tl_router_target.o (symbol from plugin)
 .text          0x0000000000000000        0x0 ../../ExtendedColorLight/Build/bdb_tl_common.o (symbol from plugin)
 .text          0x0000000000000000        0x0 ../../ExtendedColorLight/Build/ecb_decrypt.o (symbol from plugin)
 .text          0x0000000000000000        0x0 ../../ExtendedColorLight/Build/bdb_fb_common.o (symbol from plugin)
 .text          0x0000000000000000        0x0 ../../ExtendedColorLight/Build/bdb_fb_target.o (symbol from plugin)
 .text          0x0000000000000000        0x0 zps_mac_shim.o (symbol from plugin)
 .text          0x0000000000000000        0x0 zps_miniMac.o (symbol from plugin)
 .text          0x0000000000000000        0x0 zps_mac_common.o (symbol from plugin)
 .text          0x0000000000000000        0x0 zps_mac_ie.o (symbol from plugin)
 .text          0x0000000000000000        0x0 pwrm.o (symbol from plugin)
 .data          0x0000000000000000        0x0 ../../../../sdk/JN-SW-4170/Components/Library\libPWRM_JN516x.a(pwrm_setjmp_JN516x.o)
 .bss           0x0000000000000000        0x0 ../../../../sdk/JN-SW-4170/Components/Library\libPWRM_JN516x.a(pwrm_setjmp_JN516x.o)
 .text          0x0000000000000000        0x0 pwrm_cold_start.o (symbol from plugin)
 .text          0x0000000000000000        0x0 pwrm_warm_start.o (symbol from plugin)
 .text          0x0000000000000000        0x0 aes_sw_mmo.o (symbol from plugin)
 .text          0x0000000000000000        0x0 pdum_nwk.o (symbol from plugin)
 .text          0x0000000000000000        0x0 pdum_apl.o (symbol from plugin)
 .text          0x0000000000000000        0x0 pdum.o (symbol from plugin)
 .text          0x0000000000000000        0x0 zps_apl_inl.o (symbol from plugin)
 .text          0x0000000000000000        0x0 zps_apl_af.o (symbol from plugin)
 .text          0x0000000000000000        0x0 zps_apl_af_apsde.o (symbol from plugin)
 .text          0x0000000000000000        0x0 zps_apl_task.o (symbol from plugin)
 .text          0x0000000000000000        0x0 zps_apl_apsde.o (symbol from plugin)
 .text          0x0000000000000000        0x0 zps_apl_apsme.o (symbol from plugin)
 .text          0x0000000000000000        0x0 zps_apl_aps_nlde.o (symbol from plugin)
 .text          0x0000000000000000        0x0 zps_apl_sec.o (symbol from plugin)
 .text          0x0000000000000000        0x0 zps_apl_aib.o (symbol from plugin)
 .text          0x0000000000000000        0x0 zps_apl_zdo_nwkmanager.o (symbol from plugin)
 .text          0x0000000000000000        0x0 zps_apl_zdo_handle_zdp_event.o (symbol from plugin)
 .text          0x0000000000000000        0x0 zps_apl_zdo_trust_center.o (symbol from plugin)
 .text          0x0000000000000000        0x0 zps_apl_zdo_common.o (symbol from plugin)
 .text          0x0000000000000000        0x0 zps_apl_zdo_group.o (symbol from plugin)
 .text          0x0000000000000000        0x0 zps_apl_zdo_default_server.o (symbol from plugin)
 .text          0x0000000000000000        0x0 zps_apl_zdo_bind_manager.o (symbol from plugin)
 .text          0x0000000000000000        0x0 zps_apl_mac_isr.o (symbol from plugin)
 .text          0x0000000000000000        0x0 zps_apl_zdo_nwk_addr_server.o (symbol from plugin)
 .text          0x0000000000000000        0x0 zps_apl_zdo_ieee_addr_server.o (symbol from plugin)
 .text          0x0000000000000000        0x0 zps_apl_zdo_match_desc_server.o (symbol from plugin)
 .text          0x0000000000000000        0x0 zps_apl_zdo_node_desc_server.o (symbol from plugin)
 .text          0x0000000000000000        0x0 zps_apl_zdo_simple_desc_server.o (symbol from plugin)
 .text          0x0000000000000000        0x0 zps_apl_zdo_power_desc_server.o (symbol from plugin)
 .text          0x0000000000000000        0x0 zps_apl_zdo_active_ep_server.o (symbol from plugin)
 .text          0x0000000000000000        0x0 zps_apl_zdo_device_annce_server.o (symbol from plugin)
 .text          0x0000000000000000        0x0 zps_apl_zdo_parent_annce_server.o (symbol from plugin)
 .text          0x0000000000000000        0x0 zps_apl_zdo_permit_joining_server.o (symbol from plugin)
 .text          0x0000000000000000        0x0 zps_apl_zdo_mgmt_lqi_server.o (symbol from plugin)
 .text          0x0000000000000000        0x0 zps_apl_zdo_mgmt_rtg_server.o (symbol from plugin)
 .text          0x0000000000000000        0x0 zps_apl_zdo_mgmt_leave_server.o (symbol from plugin)
 .text          0x0000000000000000        0x0 zps_apl_zdo_mgmt_nwk_update_server.o (symbol from plugin)
 .text          0x0000000000000000        0x0 zps_apl_zdo_bind_unbind_server.o (symbol from plugin)
 .text          0x0000000000000000        0x0 zps_apl_zdo_bound_data_request_manager.o (symbol from plugin)
 .text          0x0000000000000000        0x0 zps_apl_zdo_nwkmanager_client.o (symbol from plugin)
 .text          0x0000000000000000        0x0 zps_apl_zdo_mgmt_bind_server.o (symbol from plugin)
 .text          0x0000000000000000        0x0 zps_apl_zdp_apsde_req.o (symbol from plugin)
 .text          0x0000000000000000        0x0 zps_apl_zdp_active_ep_req.o (symbol from plugin)
 .text          0x0000000000000000        0x0 zps_apl_zdp_active_ep_store_req.o (symbol from plugin)
 .text          0x0000000000000000        0x0 zps_apl_zdp_backup_source_bind_req.o (symbol from plugin)
 .text          0x0000000000000000        0x0 zps_apl_zdp_bind_register_req.o (symbol from plugin)
 .text          0x0000000000000000        0x0 zps_apl_zdp_bind_unbind_req.o (symbol from plugin)
 .text          0x0000000000000000        0x0 zps_apl_zdp_bkup_bind_table_req.o (symbol from plugin)
 .text          0x0000000000000000        0x0 zps_apl_zdp_complex_desc_req.o (symbol from plugin)
 .text          0x0000000000000000        0x0 zps_apl_zdp_device_annce.o (symbol from plugin)
 .text          0x0000000000000000        0x0 zps_apl_zdp_discovery_cache_req.o (symbol from plugin)
 .text          0x0000000000000000        0x0 zps_apl_zdp_discovery_store_req.o (symbol from plugin)
 .text          0x0000000000000000        0x0 zps_apl_zdp_end_device_bind_req.o (symbol from plugin)
 .text          0x0000000000000000        0x0 zps_apl_zdp_extended_active_ep_req.o (symbol from plugin)
 .text          0x0000000000000000        0x0 zps_apl_zdp_extended_simple_desc_req.o (symbol from plugin)
 .text          0x0000000000000000        0x0 zps_apl_zdp_find_node_cache_req.o (symbol from plugin)
 .text          0x0000000000000000        0x0 zps_apl_zdp_ieee_addr_req.o (symbol from plugin)
 .text          0x0000000000000000        0x0 zps_apl_zdp_match_desc_req.o (symbol from plugin)
 .text          0x0000000000000000        0x0 zps_apl_zdp_mgmt_bind_req.o (symbol from plugin)
 .text          0x0000000000000000        0x0 zps_apl_zdp_mgmt_cache_req.o (symbol from plugin)
 .text          0x0000000000000000        0x0 zps_apl_zdp_mgmt_direct_join_req.o (symbol from plugin)
 .text          0x0000000000000000        0x0 zps_apl_zdp_mgmt_leave_req.o (symbol from plugin)
 .text          0x0000000000000000        0x0 zps_apl_zdp_mgmt_lqi_req.o (symbol from plugin)
 .text          0x0000000000000000        0x0 zps_apl_zdp_mgmt_nwk_disc_req.o (symbol from plugin)
 .text          0x0000000000000000        0x0 zps_apl_zdp_mgmt_nwk_update_req.o (symbol from plugin)
 .text          0x0000000000000000        0x0 zps_apl_zdp_mgmt_permit_joining_req.o (symbol from plugin)
 .text          0x0000000000000000        0x0 zps_apl_zdp_mgmt_rtg_req.o (symbol from plugin)
 .text          0x0000000000000000        0x0 zps_apl_zdp_node_desc_req.o (symbol from plugin)
 .text          0x0000000000000000        0x0 zps_apl_zdp_nwk_addr_req.o (symbol from plugin)
 .text          0x0000000000000000        0x0 zps_apl_zdp_parent_annce_req.o (symbol from plugin)
 .text          0x0000000000000000        0x0 zps_apl_zdp_power_desc_req.o (symbol from plugin)
 .text          0x0000000000000000        0x0 zps_apl_zdp_power_desc_store_req.o (symbol from plugin)
 .text          0x0000000000000000        0x0 zps_apl_zdp_recover_bind_table_req.o (symbol from plugin)
 .text          0x0000000000000000        0x0 zps_apl_zdp_recover_source_bind_req.o (symbol from plugin)
 .text          0x0000000000000000        0x0 zps_apl_zdp_remove_bkup_bind_entry_req.o (symbol from plugin)
 .text          0x0000000000000000        0x0 zps_apl_zdp_remove_node_cache_req.o (symbol from plugin)
 .text          0x0000000000000000        0x0 zps_apl_zdp_replace_device_req.o (symbol from plugin)
 .text          0x0000000000000000        0x0 zps_apl_zdp_simple_desc_req.o (symbol from plugin)
 .text          0x0000000000000000        0x0 zps_apl_zdp_simple_desc_store_req.o (symbol from plugin)
 .text          0x0000000000000000        0x0 zps_apl_zdp_system_server_discovery_req.o (symbol from plugin)
 .text          0x0000000000000000        0x0 zps_apl_zdp_store_bkup_bind_entry_req.o (symbol from plugin)
 .text          0x0000000000000000        0x0 zps_apl_zdp_node_desc_store_req.o (symbol from plugin)
 .text          0x0000000000000000        0x0 zps_apl_zdp_user_desc_req.o (symbol from plugin)
 .text          0x0000000000000000        0x0 zps_apl_zdp_user_desc_set.o (symbol from plugin)
 .text          0x0000000000000000        0x0 zps_apl_zdp_nwk_addr_rsp.o (symbol from plugin)
 .text          0x0000000000000000        0x0 zps_apl_zdp_ieee_addr_rsp.o (symbol from plugin)
 .text          0x0000000000000000        0x0 zps_apl_zdp_node_desc_rsp.o (symbol from plugin)
 .text          0x0000000000000000        0x0 zps_apl_zdp_parent_annce_rsp.o (symbol from plugin)
 .text          0x0000000000000000        0x0 zps_apl_zdp_power_desc_rsp.o (symbol from plugin)
 .text          0x0000000000000000        0x0 zps_apl_zdp_simple_desc_rsp.o (symbol from plugin)
 .text          0x0000000000000000        0x0 zps_apl_zdp_active_ep_rsp.o (symbol from plugin)
 .text          0x0000000000000000        0x0 zps_apl_zdp_match_desc_rsp.o (symbol from plugin)
 .text          0x0000000000000000        0x0 zps_apl_zdp_bind_rsp.o (symbol from plugin)
 .text          0x0000000000000000        0x0 zps_apl_zdp_unbind_rsp.o (symbol from plugin)
 .text          0x0000000000000000        0x0 zps_apl_zdp_mgmt_lqi_rsp.o (symbol from plugin)
 .text          0x0000000000000000        0x0 zps_apl_zdp_mgmt_rtg_rsp.o (symbol from plugin)
 .text          0x0000000000000000        0x0 zps_apl_zdp_mgmt_leave_rsp.o (symbol from plugin)
 .text          0x0000000000000000        0x0 zps_apl_zdp_mgmt_nwk_update_notify_rsp.o (symbol from plugin)
 .text          0x0000000000000000        0x0 zps_apl_zdp_mgmt_permit_joining_rsp.o (symbol from plugin)
 .text          0x0000000000000000        0x0 zps_apl_zdp_mgmt_mib_ieee_req.o (symbol from plugin)
 .text          0x0000000000000000        0x0 rnd_main.o (symbol from plugin)
 .text          0x0000000000000000        0x0 PDM_Bitmap.o (symbol from plugin)
 .text          0x0000000000000000        0x0 PDM_Create.o (symbol from plugin)
 .text          0x0000000000000000        0x0 PDM_EEPROMsegmentStatus.o (symbol from plugin)
 .text          0x0000000000000000        0x0 PDM_FileSystem.o (symbol from plugin)
 .text          0x0000000000000000        0x0 PDM_FileSystemData.o (symbol from plugin)
 .text          0x0000000000000000        0x0 PDM_FileSystemDelete.o (symbol from plugin)
 .text          0x0000000000000000        0x0 PDM_FileSystemGenerate.o (symbol from plugin)
 .text          0x0000000000000000        0x0 PDM_FileSystemHeaderAccessFunctions.o (symbol from plugin)
 .text          0x0000000000000000        0x0 PDM_FileSystemHeaderRepair.o (symbol from plugin)
 .text          0x0000000000000000        0x0 PDM_FileSystemHeaderVerify.o (symbol from plugin)
 .text          0x0000000000000000        0x0 PDM_FileSystemMove.o (symbol from plugin)
 .text          0x0000000000000000        0x0 PDM_FileSystemVerify.o (symbol from plugin)
 .text          0x0000000000000000        0x0 PDM_ImageBitmapReconstruct.o (symbol from plugin)
 .text          0x0000000000000000        0x0 PDM_SearchAndListOrder.o (symbol from plugin)
 .text          0x0000000000000000        0x0 PDM_Segment.o (symbol from plugin)
 .text          0x0000000000000000        0x0 PDM_SegmentData.o (symbol from plugin)
 .text          0x0000000000000000        0x0 PDM_SegmentReplace.o (symbol from plugin)
 .text          0x0000000000000000        0x0 PDM_SegmentSequenceExtendDelete.o (symbol from plugin)
 .text          0x0000000000000000        0x0 PDM_SegmentSequenceExtendReconstruct.o (symbol from plugin)
 .text          0x0000000000000000        0x0 PDM_SegmentSequenceSave.o (symbol from plugin)
 .text          0x0000000000000000        0x0 PDM_slist.o (symbol from plugin)
 .text          0x0000000000000000        0x0 PDM_WearLevelling.o (symbol from plugin)
 .text          0x0000000000000000        0x0 PdmNoRtosStub.o (symbol from plugin)
 .text          0x0000000000000000        0x0 PDM_EEPROMheaderAccessFunctions.o (symbol from plugin)
 .text          0x0000000000000000        0x0 PDM_EEPROMheaderReadAndWrite.o (symbol from plugin)
 .text          0x0000000000000000        0x0 PDM_EEPROMReadAndWrite.o (symbol from plugin)
 .text          0x0000000000000000        0x0 PDM_FileSystemHeaderChecksum.o (symbol from plugin)
 .text          0x0000000000000000        0x0 PDM_SegmentSequenceExtendFilter.o (symbol from plugin)
 .text          0x0000000000000000        0x0 PDM_EEPROM.o (symbol from plugin)
 .text          0x0000000000000000        0x0 zps_apl_gp.o (symbol from plugin)
 .text          0x0000000000000000        0x0 zps_bdir_gp.o (symbol from plugin)
 .text          0x0000000000000000        0x0 zps_apl_gp_security.o (symbol from plugin)
 .text          0x0000000000000000        0x0 zps_apl_options.o (symbol from plugin)
 .text          0x0000000000000000        0x0 zps_apl_interpan.o (symbol from plugin)
 .text          0x0000000000000000        0x0 zps_nwk_dcim.o (symbol from plugin)
 .text          0x0000000000000000        0x0 zps_nwk_leave.o (symbol from plugin)
 .text          0x0000000000000000        0x0 zps_nwk_lib.o (symbol from plugin)
 .text          0x0000000000000000        0x0 zps_nwk_lkst.o (symbol from plugin)
 .text          0x0000000000000000        0x0 zps_nwk_main.o (symbol from plugin)
 .text          0x0000000000000000        0x0 zps_nwk_maint.o (symbol from plugin)
 .text          0x0000000000000000        0x0 zps_nwk_mcps.o (symbol from plugin)
 .text          0x0000000000000000        0x0 zps_nwk_mlme.o (symbol from plugin)
 .text          0x0000000000000000        0x0 zps_nwk_nib.o (symbol from plugin)
 .text          0x0000000000000000        0x0 zps_nwk_nlde.o (symbol from plugin)
 .text          0x0000000000000000        0x0 zps_nwk_nlme.o (symbol from plugin)
 .text          0x0000000000000000        0x0 zps_nwk_pmjn.o (symbol from plugin)
 .text          0x0000000000000000        0x0 zps_nwk_rt.o (symbol from plugin)
 .text          0x0000000000000000        0x0 zps_nwk_sec.o (symbol from plugin)
 .text          0x0000000000000000        0x0 zps_nwk_slist.o (symbol from plugin)
 .text          0x0000000000000000        0x0 zps_nwk_subghz.o (symbol from plugin)
 .text          0x0000000000000000        0x0 zps_nwk_actv_st.o (symbol from plugin)
 .text          0x0000000000000000        0x0 zps_nwk_btt.o (symbol from plugin)
 .text          0x0000000000000000        0x0 zps_nwk_disc.o (symbol from plugin)
 .text          0x0000000000000000        0x0 zps_nwk_disc_st.o (symbol from plugin)
 .text          0x0000000000000000        0x0 zps_nwk_form_st.o (symbol from plugin)
 .text          0x0000000000000000        0x0 zps_nwk_frm.o (symbol from plugin)
 .text          0x0000000000000000        0x0 zps_nwk_idle_st.o (symbol from plugin)
 .text          0x0000000000000000        0x0 zps_nwk_join.o (symbol from plugin)
 .text          0x0000000000000000        0x0 zps_nwk_join_st.o (symbol from plugin)
 .text          0x0000000000000000        0x0 zps_nwk_mac.o (symbol from plugin)
 .text          0x0000000000000000        0x0 zps_nwk_scan.o (symbol from plugin)
 .text          0x0000000000000000        0x0 zps_nwk_sync.o (symbol from plugin)
 .text          0x0000000000000000        0x0 zps_nwk_intf.o (symbol from plugin)
 .text          0x0000000000000000        0x0 zps_nwk_form.o (symbol from plugin)
 .text          0x0000000000000000        0x0 JN5148ReCal.o (symbol from plugin)
 .text          0x0000000000000000        0x0 Mini_Main.o (symbol from plugin)
 .text          0x0000000000000000        0x0 Mini_Association.o (symbol from plugin)
 .text          0x0000000000000000        0x0 Mini_Mcps.o (symbol from plugin)
 .text          0x0000000000000000        0x0 Mini_Poll.o (symbol from plugin)
 .text          0x0000000000000000        0x0 Mini_Running.o (symbol from plugin)
 .text          0x0000000000000000        0x0 Mini_Scan.o (symbol from plugin)
 .text          0x0000000000000000        0x0 Mini_TimerServer.o (symbol from plugin)
 .text          0x0000000000000000        0x0 Mini_TxRx.o (symbol from plugin)
 .text          0x0000000000000000        0x0 Endian.o (symbol from plugin)
 .text          0x0000000000000000        0x0 Mini_Shim.o (symbol from plugin)
 .text          0x0000000000000000        0x0 MMAC.o (symbol from plugin)
 .text          0x0000000000000000        0x0 MMAC_RadioInit_JN5169.o (symbol from plugin)
 .text          0x0000000000000000        0x0 JPT_RadioTxPowerTests.o (symbol from plugin)
 .text          0x0000000000000000        0x0 JPT_RadioEnergyDetect.o (symbol from plugin)
 .text          0x0000000000000000        0x0 JPT_RadioSettings_JN5169.o (symbol from plugin)
 .text          0x0000000000000000        0x0 RegisterAccess.o (symbol from plugin)
 .text          0x0000000000000000        0x0 JPT_RadioFunctions.o (symbol from plugin)
 .text          0x0000000000000000        0x0 AEScoprocessorAPI.o (symbol from plugin)
 .text          0x0000000000000000        0x0 AEScoprocessorECB.o (symbol from plugin)
 .text          0x0000000000000000        0x0 AES_CCM_Star.o (symbol from plugin)
 .text          0x0000000000000000        0x0 AHI_Analogue.o (symbol from plugin)
 .text          0x0000000000000000        0x0 AHI_Dio.o (symbol from plugin)
 .text          0x0000000000000000        0x0 AHI_Reset.o (symbol from plugin)
 .text          0x0000000000000000        0x0 AHI_System.o (symbol from plugin)
 .text          0x0000000000000000        0x0 AHI_Timer.o (symbol from plugin)
 .text          0x0000000000000000        0x0 AHI_TimerInt.o (symbol from plugin)
 .text          0x0000000000000000        0x0 AHI_WakeTimer.o (symbol from plugin)
 .text          0x0000000000000000        0x0 AHI_Flash.o (symbol from plugin)
 .text          0x0000000000000000        0x0 AHI_FlashPoll.o (symbol from plugin)
 .text          0x0000000000000000        0x0 AHI_Infrared.o (symbol from plugin)
 .text          0x0000000000000000        0x0 InternalFlashApi.o (symbol from plugin)
 .text          0x0000000000000000        0x0 AHI_FlashIndexSector.o (symbol from plugin)
 .text          0x0000000000000000        0x0 EEP_EEPROM.o (symbol from plugin)
 .text          0x0000000000000000        0x0 AHI_TickTimer.o (symbol from plugin)
 .data          0x0000000000000000        0x0 ../../../../sdk/JN-SW-4170/Components/Library\libHardwareApi_JN5169.a(AHI_Interrupt.o)
 .bss           0x0000000000000000        0x0 ../../../../sdk/JN-SW-4170/Components/Library\libHardwareApi_JN5169.a(AHI_Interrupt.o)
 .text          0x0000000000000000        0x0 AHI_Spi.o (symbol from plugin)
 .text          0x0000000000000000        0x0 MicroInt_ba.o (symbol from plugin)
 .text          0x0000000000000000        0x0 ../../../../sdk/JN-SW-4170/Components/Library\libMicroSpecific_JN516x.a(MicroSyscall_ba.o)
 .data          0x0000000000000000        0x0 ../../../../sdk/JN-SW-4170/Components/Library\libMicroSpecific_JN516x.a(MicroSyscall_ba.o)
 .bss           0x0000000000000000        0x0 ../../../../sdk/JN-SW-4170/Components/Library\libMicroSpecific_JN516x.a(MicroSyscall_ba.o)
 .text          0x0000000000000000        0x0 Heap.o (symbol from plugin)
 .text          0x0000000000000000        0x0 ../../../../sdk/JN-SW-4170/Components/Library\libBoot_JN516x.a(ExceptionHandler.o)
 .data          0x0000000000000000        0x0 ../../../../sdk/JN-SW-4170/Components/Library\libBoot_JN516x.a(ExceptionHandler.o)
 .bss           0x0000000000000000        0x0 ../../../../sdk/JN-SW-4170/Components/Library\libBoot_JN516x.a(ExceptionHandler.o)
 .vsr_handlers  0x0000000000000000       0xa7 ../../../../sdk/JN-SW-4170/Components/Library\libBoot_JN516x.a(ExceptionHandler.o)
 .text          0x0000000000000000        0x0 LightingBoard.o (symbol from plugin)
 .text          0x0000000000000000        0x0 PCA9634.o (symbol from plugin)
 .text          0x0000000000000000        0x0 SMBus.o (symbol from plugin)
 .text          0x0000000000000000        0x0 zps_mac_if_table.o (symbol from plugin)
 .text          0x0000000000000000        0x0 zps_tsv.o (symbol from plugin)
 .text          0x0000000000000000        0x0 aes_sw_hmac_mmo.o (symbol from plugin)
 .text          0x0000000000000000        0x0 AHI_Si.o (symbol from plugin)
 .data          0x0000000000000000        0x0 ../../../../sdk/JN-SW-4170/Components/Library\libZPSAPL_JN516x.a(zps_apl_version_lc.o)
 .bss           0x0000000000000000        0x0 ../../../../sdk/JN-SW-4170/Components/Library\libZPSAPL_JN516x.a(zps_apl_version_lc.o)
 .data          0x0000000000000000        0x0 ../../../../sdk/JN-SW-4170/Components/Library\libZPSNWK_JN516x.a(zps_nwk_version_lc.o)
 .bss           0x0000000000000000        0x0 ../../../../sdk/JN-SW-4170/Components/Library\libZPSNWK_JN516x.a(zps_nwk_version_lc.o)
 .data          0x0000000000000000        0x0 c:/nxp/bstudio_nxp/sdk/tools/ba-elf-ba2-r36379/bin/../lib/gcc/ba-elf/4.7.4/../../../../ba-elf/lib/mcpu_jn51xx_sizeopt\libm.a(lib_a-s_floor.o)
 .bss           0x0000000000000000        0x0 c:/nxp/bstudio_nxp/sdk/tools/ba-elf-ba2-r36379/bin/../lib/gcc/ba-elf/4.7.4/../../../../ba-elf/lib/mcpu_jn51xx_sizeopt\libm.a(lib_a-s_floor.o)

Memory Configuration

Name             Origin             Length             Attributes
flash            0x0000000000080000 0x0000000000080000
ram              0x000000000400004c 0x0000000000007fb4
*default*        0x0000000000000000 0xffffffffffffffff

Linker script and memory map

                0x0000000000001964                __stack_size = 0x1964
                0x00000000000007d0                __minimum_heap_size = 0x7d0
START GROUP
LOAD ../../ExtendedColorLight/Build/irq_JN516x.o
LOAD ../../ExtendedColorLight/Build/portasm_JN516x.o
LOAD ../../ExtendedColorLight/Build/port_JN516x.o
LOAD C:\Users\nxf40467\AppData\Local\Temp\ccjQdhik.ltrans0.ltrans.o
LOAD C:\Users\nxf40467\AppData\Local\Temp\ccjQdhik.ltrans1.ltrans.o
LOAD C:\Users\nxf40467\AppData\Local\Temp\ccjQdhik.ltrans2.ltrans.o
LOAD C:\Users\nxf40467\AppData\Local\Temp\ccjQdhik.ltrans3.ltrans.o
LOAD C:\Users\nxf40467\AppData\Local\Temp\ccjQdhik.ltrans4.ltrans.o
LOAD C:\Users\nxf40467\AppData\Local\Temp\ccjQdhik.ltrans5.ltrans.o
LOAD C:\Users\nxf40467\AppData\Local\Temp\ccjQdhik.ltrans6.ltrans.o
LOAD C:\Users\nxf40467\AppData\Local\Temp\ccjQdhik.ltrans7.ltrans.o
LOAD C:\Users\nxf40467\AppData\Local\Temp\ccjQdhik.ltrans8.ltrans.o
LOAD C:\Users\nxf40467\AppData\Local\Temp\ccjQdhik.ltrans9.ltrans.o
LOAD C:\Users\nxf40467\AppData\Local\Temp\ccjQdhik.ltrans10.ltrans.o
LOAD C:\Users\nxf40467\AppData\Local\Temp\ccjQdhik.ltrans11.ltrans.o
LOAD C:\Users\nxf40467\AppData\Local\Temp\ccjQdhik.ltrans12.ltrans.o
LOAD C:\Users\nxf40467\AppData\Local\Temp\ccjQdhik.ltrans13.ltrans.o
LOAD C:\Users\nxf40467\AppData\Local\Temp\ccjQdhik.ltrans14.ltrans.o
LOAD C:\Users\nxf40467\AppData\Local\Temp\ccjQdhik.ltrans15.ltrans.o
LOAD C:\Users\nxf40467\AppData\Local\Temp\ccjQdhik.ltrans16.ltrans.o
LOAD C:\Users\nxf40467\AppData\Local\Temp\ccjQdhik.ltrans17.ltrans.o
LOAD C:\Users\nxf40467\AppData\Local\Temp\ccjQdhik.ltrans18.ltrans.o
LOAD C:\Users\nxf40467\AppData\Local\Temp\ccjQdhik.ltrans19.ltrans.o
LOAD C:\Users\nxf40467\AppData\Local\Temp\ccjQdhik.ltrans20.ltrans.o
LOAD C:\Users\nxf40467\AppData\Local\Temp\ccjQdhik.ltrans21.ltrans.o
LOAD C:\Users\nxf40467\AppData\Local\Temp\ccjQdhik.ltrans22.ltrans.o
LOAD C:\Users\nxf40467\AppData\Local\Temp\ccjQdhik.ltrans23.ltrans.o
LOAD C:\Users\nxf40467\AppData\Local\Temp\ccjQdhik.ltrans24.ltrans.o
LOAD C:\Users\nxf40467\AppData\Local\Temp\ccjQdhik.ltrans25.ltrans.o
LOAD C:\Users\nxf40467\AppData\Local\Temp\ccjQdhik.ltrans26.ltrans.o
LOAD C:\Users\nxf40467\AppData\Local\Temp\ccjQdhik.ltrans27.ltrans.o
LOAD C:\Users\nxf40467\AppData\Local\Temp\ccjQdhik.ltrans28.ltrans.o
LOAD C:\Users\nxf40467\AppData\Local\Temp\ccjQdhik.ltrans29.ltrans.o
LOAD C:\Users\nxf40467\AppData\Local\Temp\ccjQdhik.ltrans30.ltrans.o
LOAD C:\Users\nxf40467\AppData\Local\Temp\ccjQdhik.ltrans31.ltrans.o
LOAD c:/nxp/bstudio_nxp/sdk/tools/ba-elf-ba2-r36379/bin/../lib/gcc/ba-elf/4.7.4/../../../../ba-elf/lib/mcpu_jn51xx_sizeopt\libc.a
LOAD c:/nxp/bstudio_nxp/sdk/tools/ba-elf-ba2-r36379/bin/../lib/gcc/ba-elf/4.7.4/mcpu_jn51xx_sizeopt\libgcc.a
LOAD c:/nxp/bstudio_nxp/sdk/tools/ba-elf-ba2-r36379/bin/../lib/gcc/ba-elf/4.7.4/../../../../ba-elf/lib/mcpu_jn51xx_sizeopt\libc.a
LOAD ../../ExtendedColorLight/Build/app_main.o
LOAD ../../ExtendedColorLight/Build/pdum_gen.o
LOAD ../../ExtendedColorLight/Build/pdum_apdu.o
LOAD ../../ExtendedColorLight/Build/zps_gen.o
LOAD ../../ExtendedColorLight/Build/app_start_light.o
LOAD ../../ExtendedColorLight/Build/app_scenes.o
LOAD ../../ExtendedColorLight/Build/app_pdm_convert.o
LOAD ../../ExtendedColorLight/Build/app_zlo_light_node.o
LOAD ../../ExtendedColorLight/Build/app_zcl_light_task.o
LOAD ../../ExtendedColorLight/Build/app_manage_temperature.o
LOAD ../../ExtendedColorLight/Build/app_ota_client.o
LOAD ../../ExtendedColorLight/Build/app_light_interpolation.o
LOAD ../../ExtendedColorLight/Build/app_reporting.o
LOAD ../../ExtendedColorLight/Build/app_power_on_counter.o
LOAD ../../ExtendedColorLight/Build/app_green_power.o
LOAD ../../ExtendedColorLight/Build/App_ExtendedColorLight.o
LOAD ../../ExtendedColorLight/Build/DriverBulb_DR1175.o
LOAD ../../ExtendedColorLight/Build/DriverBulb_Shim.o
LOAD ../../ExtendedColorLight/Build/app_buttons.o
LOAD ../../ExtendedColorLight/Build/ZQueue.o
LOAD ../../ExtendedColorLight/Build/ZTimer.o
LOAD ../../ExtendedColorLight/Build/app_zps_link_keys.o
LOAD ../../ExtendedColorLight/Build/GreenPower.o
LOAD ../../ExtendedColorLight/Build/GreenPowerCommissioningNotification.o
LOAD ../../ExtendedColorLight/Build/GreenPowerCommon.o
LOAD ../../ExtendedColorLight/Build/GreenPowerCustomCommandHandler.o
LOAD ../../ExtendedColorLight/Build/GreenPowerCustomCommandResponses.o
LOAD ../../ExtendedColorLight/Build/GreenPowerDataIndication.o
LOAD ../../ExtendedColorLight/Build/GreenPowerDirectCommandHandler.o
LOAD ../../ExtendedColorLight/Build/GreenPowerNotification.o
LOAD ../../ExtendedColorLight/Build/GreenPowerPairing.o
LOAD ../../ExtendedColorLight/Build/GreenPowerPairingConfiguration.o
LOAD ../../ExtendedColorLight/Build/GreenPowerPairingSearch.o
LOAD ../../ExtendedColorLight/Build/GreenPowerProxyCommissioningMode.o
LOAD ../../ExtendedColorLight/Build/GreenPowerProxyGPDHandler.o
LOAD ../../ExtendedColorLight/Build/GreenPowerProxyTableRequest.o
LOAD ../../ExtendedColorLight/Build/GreenPowerProxyTableResponse.o
LOAD ../../ExtendedColorLight/Build/GreenPowerResponse.o
LOAD ../../ExtendedColorLight/Build/GreenPowerScheduler.o
LOAD ../../ExtendedColorLight/Build/GreenPowerSinkTableRequest.o
LOAD ../../ExtendedColorLight/Build/GreenPowerSinkTableResponse.o
LOAD ../../ExtendedColorLight/Build/GreenPowerTranslationTableRequest.o
LOAD ../../ExtendedColorLight/Build/GreenPowerTranslationTableResponse.o
LOAD ../../ExtendedColorLight/Build/GreenPowerTranslationTableUpdate.o
LOAD ../../ExtendedColorLight/Build/gp.o
LOAD ../../ExtendedColorLight/Build/Alarms.o
LOAD ../../ExtendedColorLight/Build/AlarmsClientCommands.o
LOAD ../../ExtendedColorLight/Build/AlarmsCommandHandler.o
LOAD ../../ExtendedColorLight/Build/AlarmsServerCommands.o
LOAD ../../ExtendedColorLight/Build/AlarmsTableManager.o
LOAD ../../ExtendedColorLight/Build/AnalogInputBasic.o
LOAD ../../ExtendedColorLight/Build/AnalogOutputBasic.o
LOAD ../../ExtendedColorLight/Build/Basic.o
LOAD ../../ExtendedColorLight/Build/BasicClientCommands.o
LOAD ../../ExtendedColorLight/Build/BasicCommandHandler.o
LOAD ../../ExtendedColorLight/Build/BinaryInputBasic.o
LOAD ../../ExtendedColorLight/Build/BinaryOutputBasic.o
LOAD ../../ExtendedColorLight/Build/DeviceTemperatureConfiguration.o
LOAD ../../ExtendedColorLight/Build/Diagnostics.o
LOAD ../../ExtendedColorLight/Build/Groups.o
LOAD ../../ExtendedColorLight/Build/GroupsClientCommands.o
LOAD ../../ExtendedColorLight/Build/GroupsCommandHandler.o
LOAD ../../ExtendedColorLight/Build/GroupsServerCommands.o
LOAD ../../ExtendedColorLight/Build/GroupsTableManager.o
LOAD ../../ExtendedColorLight/Build/Identify.o
LOAD ../../ExtendedColorLight/Build/IdentifyClientCommands.o
LOAD ../../ExtendedColorLight/Build/IdentifyCommandHandler.o
LOAD ../../ExtendedColorLight/Build/IdentifyServerCommands.o
LOAD ../../ExtendedColorLight/Build/LevelControl.o
LOAD ../../ExtendedColorLight/Build/LevelControlClientCommands.o
LOAD ../../ExtendedColorLight/Build/LevelControlCommandHandler.o
LOAD ../../ExtendedColorLight/Build/MultistateInputBasic.o
LOAD ../../ExtendedColorLight/Build/MultistateOutputBasic.o
LOAD ../../ExtendedColorLight/Build/OOSC.o
LOAD ../../ExtendedColorLight/Build/OnOff.o
LOAD ../../ExtendedColorLight/Build/OnOffCommandHandler.o
LOAD ../../ExtendedColorLight/Build/OnOffCommands.o
LOAD ../../ExtendedColorLight/Build/PollControl.o
LOAD ../../ExtendedColorLight/Build/PollControlClientCommands.o
LOAD ../../ExtendedColorLight/Build/PollControlCommandHandler.o
LOAD ../../ExtendedColorLight/Build/PollControlServerCommands.o
LOAD ../../ExtendedColorLight/Build/PowerConfiguration.o
LOAD ../../ExtendedColorLight/Build/PowerProfile.o
LOAD ../../ExtendedColorLight/Build/PowerProfileClientCommands.o
LOAD ../../ExtendedColorLight/Build/PowerProfileCommandHandler.o
LOAD ../../ExtendedColorLight/Build/PowerProfileServerCommands.o
LOAD ../../ExtendedColorLight/Build/Scenes.o
LOAD ../../ExtendedColorLight/Build/ScenesClientCommands.o
LOAD ../../ExtendedColorLight/Build/ScenesClusterManagement.o
LOAD ../../ExtendedColorLight/Build/ScenesCommandHandler.o
LOAD ../../ExtendedColorLight/Build/ScenesServerCommands.o
LOAD ../../ExtendedColorLight/Build/ScenesTableManager.o
LOAD ../../ExtendedColorLight/Build/TC.o
LOAD ../../ExtendedColorLight/Build/Time.o
LOAD ../../ExtendedColorLight/Build/base_device.o
LOAD ../../ExtendedColorLight/Build/mains_power_outlet.o
LOAD ../../ExtendedColorLight/Build/on_off_output.o
LOAD ../../ExtendedColorLight/Build/plug_control.o
LOAD ../../ExtendedColorLight/Build/remote_control.o
LOAD ../../ExtendedColorLight/Build/simple_sensor.o
LOAD ../../ExtendedColorLight/Build/BallastConfiguration.o
LOAD ../../ExtendedColorLight/Build/ColourControl.o
LOAD ../../ExtendedColorLight/Build/ColourControlClientCommands.o
LOAD ../../ExtendedColorLight/Build/ColourControlCommandHandler.o
LOAD ../../ExtendedColorLight/Build/ColourControlConversions.o
LOAD ../../ExtendedColorLight/Build/colour_controller.o
LOAD ../../ExtendedColorLight/Build/colour_dimmable_light.o
LOAD ../../ExtendedColorLight/Build/colour_dimmer_switch.o
LOAD ../../ExtendedColorLight/Build/colour_scene_controller.o
LOAD ../../ExtendedColorLight/Build/colour_temperature_light.o
LOAD ../../ExtendedColorLight/Build/commission_endpoint.o
LOAD ../../ExtendedColorLight/Build/control_bridge.o
LOAD ../../ExtendedColorLight/Build/dimmable_ballast.o
LOAD ../../ExtendedColorLight/Build/dimmable_light.o
LOAD ../../ExtendedColorLight/Build/dimmable_plug.o
LOAD ../../ExtendedColorLight/Build/dimmer_switch.o
LOAD ../../ExtendedColorLight/Build/extended_colour_light.o
LOAD ../../ExtendedColorLight/Build/light_level_sensor.o
LOAD ../../ExtendedColorLight/Build/light_sensor.o
LOAD ../../ExtendedColorLight/Build/non_colour_controller.o
LOAD ../../ExtendedColorLight/Build/non_colour_scene_controller.o
LOAD ../../ExtendedColorLight/Build/occupancy_sensor.o
LOAD ../../ExtendedColorLight/Build/on_off_ballast.o
LOAD ../../ExtendedColorLight/Build/on_off_light.o
LOAD ../../ExtendedColorLight/Build/on_off_light_switch.o
LOAD ../../ExtendedColorLight/Build/on_off_plug.o
LOAD ../../ExtendedColorLight/Build/on_off_sensor.o
LOAD ../../ExtendedColorLight/Build/OTA.o
LOAD ../../ExtendedColorLight/Build/OTA_ClientUpgradeManager.o
LOAD ../../ExtendedColorLight/Build/OTA_CustomCommandHandler.o
LOAD ../../ExtendedColorLight/Build/OTA_CustomReceiveCommands.o
LOAD ../../ExtendedColorLight/Build/OTA_ServerUpgradeManager.o
LOAD ../../ExtendedColorLight/Build/OTA_client.o
LOAD ../../ExtendedColorLight/Build/OTA_common.o
LOAD ../../ExtendedColorLight/Build/OTA_server.o
LOAD ../../ExtendedColorLight/Build/Commissioning.o
LOAD ../../ExtendedColorLight/Build/CommissioningClientCommands.o
LOAD ../../ExtendedColorLight/Build/CommissioningCmdHandler.o
LOAD ../../ExtendedColorLight/Build/CommissioningServerCommands.o
LOAD ../../ExtendedColorLight/Build/zll_CommissionCmdHandler.o
LOAD ../../ExtendedColorLight/Build/zll_UtilityCmdHandler.o
LOAD ../../ExtendedColorLight/Build/zll_commission.o
LOAD ../../ExtendedColorLight/Build/zll_utility.o
LOAD ../../ExtendedColorLight/Build/dlist.o
LOAD ../../ExtendedColorLight/Build/zcl.o
LOAD ../../ExtendedColorLight/Build/zcl_CustomCommandReceive.o
LOAD ../../ExtendedColorLight/Build/zcl_CustomCommandSend.o
LOAD ../../ExtendedColorLight/Build/zcl_PDUbufferReadWrite.o
LOAD ../../ExtendedColorLight/Build/zcl_PDUbufferReadWriteString.o
LOAD ../../ExtendedColorLight/Build/zcl_WriteAttributesRequestHandle.o
LOAD ../../ExtendedColorLight/Build/zcl_WriteAttributesRequestSend.o
LOAD ../../ExtendedColorLight/Build/zcl_WriteAttributesResponseHandle.o
LOAD ../../ExtendedColorLight/Build/zcl_attribute.o
LOAD ../../ExtendedColorLight/Build/zcl_buffer.o
LOAD ../../ExtendedColorLight/Build/zcl_clusterCommand.o
LOAD ../../ExtendedColorLight/Build/zcl_command.o
LOAD ../../ExtendedColorLight/Build/zcl_common.o
LOAD ../../ExtendedColorLight/Build/zcl_configureReportingCommandHandle.o
LOAD ../../ExtendedColorLight/Build/zcl_configureReportingCommandSend.o
LOAD ../../ExtendedColorLight/Build/zcl_configureReportingResponseHandle.o
LOAD ../../ExtendedColorLight/Build/zcl_defaultResponse.o
LOAD ../../ExtendedColorLight/Build/zcl_discoverAttributesExtendedRequestHandle.o
LOAD ../../ExtendedColorLight/Build/zcl_discoverAttributesExtendedRequestSend.o
LOAD ../../ExtendedColorLight/Build/zcl_discoverAttributesExtendedResponseHandle.o
LOAD ../../ExtendedColorLight/Build/zcl_discoverAttributesRequestHandle.o
LOAD ../../ExtendedColorLight/Build/zcl_discoverAttributesRequestSend.o
LOAD ../../ExtendedColorLight/Build/zcl_discoverAttributesResponseHandle.o
LOAD ../../ExtendedColorLight/Build/zcl_discoverCommandsRequestHandle.o
LOAD ../../ExtendedColorLight/Build/zcl_discoverCommandsRequestSend.o
LOAD ../../ExtendedColorLight/Build/zcl_discoverCommandsResponseHandle.o
LOAD ../../ExtendedColorLight/Build/zcl_event.o
LOAD ../../ExtendedColorLight/Build/zcl_heap.o
LOAD ../../ExtendedColorLight/Build/zcl_library_options.o
LOAD ../../ExtendedColorLight/Build/zcl_readAttributesRequestHandle.o
LOAD ../../ExtendedColorLight/Build/zcl_readAttributesRequestSend.o
LOAD ../../ExtendedColorLight/Build/zcl_readAttributesResponseHandle.o
LOAD ../../ExtendedColorLight/Build/zcl_readReportingConfigurationCommandHandle.o
LOAD ../../ExtendedColorLight/Build/zcl_readReportingConfigurationCommandSend.o
LOAD ../../ExtendedColorLight/Build/zcl_readReportingConfigurationResponseHandle.o
LOAD ../../ExtendedColorLight/Build/zcl_reportManager.o
LOAD ../../ExtendedColorLight/Build/zcl_reportMaths.o
LOAD ../../ExtendedColorLight/Build/zcl_reportScheduler.o
LOAD ../../ExtendedColorLight/Build/zcl_reportStringHandling.o
LOAD ../../ExtendedColorLight/Build/zcl_reportStructure.o
LOAD ../../ExtendedColorLight/Build/zcl_search.o
LOAD ../../ExtendedColorLight/Build/zcl_timer.o
LOAD ../../ExtendedColorLight/Build/zcl_transmit.o
LOAD ../../ExtendedColorLight/Build/bdb_fr.o
LOAD ../../ExtendedColorLight/Build/bdb_start.o
LOAD ../../ExtendedColorLight/Build/bdb_state_machine.o
LOAD ../../ExtendedColorLight/Build/appZpsBeaconHandler.o
LOAD ../../ExtendedColorLight/Build/appZdpExtraction.o
LOAD ../../ExtendedColorLight/Build/bdb_ns.o
LOAD ../../ExtendedColorLight/Build/bdb_tl_router_target.o
LOAD ../../ExtendedColorLight/Build/bdb_tl_common.o
LOAD ../../ExtendedColorLight/Build/ecb_decrypt.o
LOAD ../../ExtendedColorLight/Build/bdb_fb_common.o
LOAD ../../ExtendedColorLight/Build/bdb_fb_target.o
LOAD ../../../../sdk/JN-SW-4170/Components/Library\libJPT_JN5169.a
LOAD ../../../../sdk/JN-SW-4170/Components/Library\libZPSMAC_Mini_SOC_JN516x.a
LOAD ../../../../sdk/JN-SW-4170/Components/Library\libPWRM_JN516x.a
LOAD ../../../../sdk/JN-SW-4170/Components/Library\libZPSTSV_JN516x.a
LOAD ../../../../sdk/JN-SW-4170/Components/Library\libAES_SW_JN516x.a
LOAD ../../../../sdk/JN-SW-4170/Components/Library\libPDUM_JN516x.a
LOAD ../../../../sdk/JN-SW-4170/Components/Library\libZPSAPL_JN516x.a
LOAD ../../../../sdk/JN-SW-4170/Components/Library\libRandom_JN516x.a
LOAD ../../../../sdk/JN-SW-4170/Components/Library\libPDM_EEPROM_NO_RTOS_JN516x.a
LOAD ../../../../sdk/JN-SW-4170/Components/Library\libZPSGP_JN516x.a
LOAD ../../../../sdk/JN-SW-4170/Components/Library\libZPSIPAN_JN516x.a
LOAD ../../../../sdk/JN-SW-4170/Components/Library\libZPSNWK_JN516x.a
LOAD ../../../../sdk/JN-SW-4170/Components/Library\libRecal_JN516x.a
LOAD ../../../../sdk/JN-SW-4170/Components/Library\libMiniMac_JN5169.a
LOAD ../../../../sdk/JN-SW-4170/Components/Library\libMiniMacShim_JN516x.a
LOAD ../../../../sdk/JN-SW-4170/Components/Library\libMMAC_JN5169.a
LOAD ../../../../sdk/JN-SW-4170/Components/Library\libJPT_JN5169.a
LOAD ../../../../sdk/JN-SW-4170/Components/Library\libAes_JN516x.a
LOAD ../../../../sdk/JN-SW-4170/Components/Library\libHardwareApi_JN5169.a
LOAD ../../../../sdk/JN-SW-4170/Components/Library\libMicroSpecific_JN516x.a
LOAD ../../../../sdk/JN-SW-4170/Components/Library\libBoot_JN516x.a
LOAD ../../../../sdk/JN-SW-4170/Platform/DK4/Library\libBoardLib_JN516x.a
LOAD ../../../../sdk/JN-SW-4170/Components/Library\libJPT_JN5169.a
LOAD c:/nxp/bstudio_nxp/sdk/tools/ba-elf-ba2-r36379/bin/../lib/gcc/ba-elf/4.7.4/../../../../ba-elf/lib/mcpu_jn51xx_sizeopt\libm.a
END GROUP
LOAD c:/nxp/bstudio_nxp/sdk/tools/ba-elf-ba2-r36379/bin/../lib/gcc/ba-elf/4.7.4/../../../../ba-elf/lib/mcpu_jn51xx_sizeopt\libc.a
LOAD c:/nxp/bstudio_nxp/sdk/tools/ba-elf-ba2-r36379/bin/../lib/gcc/ba-elf/4.7.4/mcpu_jn51xx_sizeopt\libgcc.a
LOAD c:/nxp/bstudio_nxp/sdk/tools/ba-elf-ba2-r36379/bin/../lib/gcc/ba-elf/4.7.4/../../../../ba-elf/lib/mcpu_jn51xx_sizeopt\libc.a
                0x0000000000080038                exception_vsr_table = 0x80038
                0x0000000004000000                pSPIflashFncTable = 0x4000000
                0x0000000000000044                restore_state = 0x44
                0x000000000000004a                bZSPIWaitWIPClear = 0x4a
                0x0000000000000050                u16ZSPIflashRDID = 0x50
                0x0000000000000056                u8SelectFlashChipType = 0x56
                0x000000000000005c                memcpy = 0x5c
                0x0000000000000066                vBootFlashProg = 0x66
                [0x00000000000007d0]                __minimum_heap_size = DEFINED (__minimum_heap_size)?__minimum_heap_size:0xd16
                [0x0000000000001964]                __stack_size = DEFINED (__stack_size)?__stack_size:0x800
                0x0000000000000000                _SwConfig = (DEFINED (g_bSWConf_Debug) | (DEFINED (g_bSWConf_AltDebugPort) << 0x1))

.version        0x000000000007fffc        0x4
                0x000000000007fffc        0x4 LONG 0xf03000b

.bir            0x0000000000080000       0x10
                0x0000000000080000                _flash_start = ABSOLUTE (.)
                0x0000000000080000                _flash_beg = ABSOLUTE (.)
                0x0000000000080000        0x4 LONG 0x12345678
                0x0000000000080004        0x4 LONG 0x11223344
                0x0000000000080008        0x4 LONG 0x55667788
                0x000000000008000c        0x1 BYTE 0x8
                0x000000000008000d        0x1 BYTE 0x1
                0x000000000008000e        0x2 SHORT 0x0

.flashheader    0x0000000000080010       0x28
                0x0000000000080010        0x4 LONG 0x0
                0x0000000000080014        0x4 LONG 0x0
                0x0000000000080018        0x4 LONG 0x0
                0x000000000008001c        0x2 SHORT 0x0
                0x000000000008001e        0x2 SHORT 0x0 ABSOLUTE (_SwConfig)
                0x0000000000080020                _enc_start = ABSOLUTE (.)
                0x0000000000080020        0x4 LONG 0x3bf98 ABSOLUTE (_image_len)
                0x0000000000080024        0x4 LONG 0xbb6c0 ABSOLUTE (_flash_data_start)
                0x0000000000080028        0x2 SHORT 0x13 ((ABSOLUTE (_ram_data_start) / 0x4) & 0xffff)
                0x000000000008002a        0x2 SHORT 0x236 ((ABSOLUTE (_ram_data_len) / 0x4) & 0xffff)
                0x000000000008002c        0x2 SHORT 0x249 ((ABSOLUTE (_bss_start) / 0x4) & 0xffff)
                0x000000000008002e        0x2 SHORT 0x14be ((ABSOLUTE (_bss_len) / 0x4) & 0xffff)
                0x0000000000080030        0x4 LONG 0xb801c ABSOLUTE (AppWarmStart)
                0x0000000000080034        0x4 LONG 0x9b130 ABSOLUTE (AppColdStart)
                0x0000000000000000                _enc_offset = (_enc_start & 0xf)

.ro_mac_address
                0x0000000000080040       0x10
                0x0000000000080040                _FlsMACAddress = ABSOLUTE (.)
 *(.ro_mac_address)
 .ro_mac_address
                0x0000000000080040        0x8 C:\Users\nxf40467\AppData\Local\Temp\ccjQdhik.ltrans3.ltrans.o
                0x0000000000080050                . = ALIGN (0x10)
 *fill*         0x0000000000080048        0x8 00

.ro_ota_header  0x0000000000080050       0x50
                0x0000000000080050                _FlsOtaHeader = ABSOLUTE (.)
 *(.ro_ota_header)
 .ro_ota_header
                0x0000000000080050       0x45 C:\Users\nxf40467\AppData\Local\Temp\ccjQdhik.ltrans21.ltrans.o
                0x0000000000080050                au8OtaHeader
                0x00000000000800a0                . = ALIGN (0x10)
 *fill*         0x0000000000080095        0xb 00

.ro_se_lnkKey   0x00000000000800a0       0x10
                0x00000000000800a0                _FlsLinkKey = ABSOLUTE (.)
 *(.ro_se_lnkKey)
 .ro_se_lnkKey  0x00000000000800a0       0x10 C:\Users\nxf40467\AppData\Local\Temp\ccjQdhik.ltrans21.ltrans.o
                0x00000000000800b0                . = ALIGN (0x10)

.rodata         0x00000000000800b0     0x10e0
 *(.rodata*)
 .rodata.str1.1
                0x0000000000000000        0x0 C:\Users\nxf40467\AppData\Local\Temp\ccjQdhik.ltrans0.ltrans.o
                                          0x3 (size before relaxing)
 .rodata        0x00000000000800b0       0x13 C:\Users\nxf40467\AppData\Local\Temp\ccjQdhik.ltrans0.ltrans.o
                0x00000000000800b3                au8FlashWaitStatesHSRCO.269016
                0x00000000000800bb                au8FlashWaitStates32MXO.269015
 *fill*         0x00000000000800c3        0x1 00
 .rodata        0x00000000000800c4       0x30 C:\Users\nxf40467\AppData\Local\Temp\ccjQdhik.ltrans1.ltrans.o
 .rodata.str1.1
                0x0000000000000000        0x0 C:\Users\nxf40467\AppData\Local\Temp\ccjQdhik.ltrans1.ltrans.o
                                          0x8 (size before relaxing)
 .rodata.str1.1
                0x00000000000800f4        0x5 C:\Users\nxf40467\AppData\Local\Temp\ccjQdhik.ltrans2.ltrans.o
                                         0x13 (size before relaxing)
 *fill*         0x00000000000800f9        0x3 00
 .rodata        0x00000000000800fc       0x7c C:\Users\nxf40467\AppData\Local\Temp\ccjQdhik.ltrans2.ltrans.o
 .rodata        0x0000000000080178        0x8 C:\Users\nxf40467\AppData\Local\Temp\ccjQdhik.ltrans3.ltrans.o
 .rodata.str1.1
                0x0000000000080180       0x11 C:\Users\nxf40467\AppData\Local\Temp\ccjQdhik.ltrans3.ltrans.o
 .rodata.str1.1
                0x0000000000080191        0x3 C:\Users\nxf40467\AppData\Local\Temp\ccjQdhik.ltrans4.ltrans.o
                                          0x7 (size before relaxing)
 .rodata        0x0000000000080194        0xc C:\Users\nxf40467\AppData\Local\Temp\ccjQdhik.ltrans4.ltrans.o
 .rodata.str1.1
                0x0000000000000000        0x3 C:\Users\nxf40467\AppData\Local\Temp\ccjQdhik.ltrans5.ltrans.o
                                          0x4 (size before relaxing)
 .rodata        0x00000000000801a0       0xb0 C:\Users\nxf40467\AppData\Local\Temp\ccjQdhik.ltrans5.ltrans.o
 .rodata.str1.1
                0x0000000000080250        0x6 C:\Users\nxf40467\AppData\Local\Temp\ccjQdhik.ltrans6.ltrans.o
                                          0xc (size before relaxing)
 *fill*         0x0000000000080256        0x2 00
 .rodata        0x0000000000080258       0x18 C:\Users\nxf40467\AppData\Local\Temp\ccjQdhik.ltrans6.ltrans.o
                0x0000000000080258                au32NwkPdmRecordOffsets
 .rodata        0x0000000000080270      0x220 C:\Users\nxf40467\AppData\Local\Temp\ccjQdhik.ltrans7.ltrans.o
                0x0000000000080270                pLocalTclkStruct
                0x0000000000080274                pfnCallbackMcps
 .rodata.str1.1
                0x0000000000000000        0x6 C:\Users\nxf40467\AppData\Local\Temp\ccjQdhik.ltrans8.ltrans.o
                                          0x3 (size before relaxing)
 .rodata        0x0000000000080490      0x280 C:\Users\nxf40467\AppData\Local\Temp\ccjQdhik.ltrans8.ltrans.o
 .rodata        0x0000000000080710        0x8 C:\Users\nxf40467\AppData\Local\Temp\ccjQdhik.ltrans9.ltrans.o
 .rodata.str1.1
                0x0000000000080718       0x11 C:\Users\nxf40467\AppData\Local\Temp\ccjQdhik.ltrans10.ltrans.o
                                         0x2b (size before relaxing)
 .rodata.str1.1
                0x0000000000000000        0x7 C:\Users\nxf40467\AppData\Local\Temp\ccjQdhik.ltrans11.ltrans.o
 *fill*         0x0000000000080729        0x3 00
 .rodata        0x000000000008072c       0x60 C:\Users\nxf40467\AppData\Local\Temp\ccjQdhik.ltrans11.ltrans.o
                0x000000000008072c                u32ScanAttemptDelayTime
                0x0000000000080730                g_u32NwkFcSaveCountBitShift
 .rodata.str1.1
                0x000000000008078c        0x5 C:\Users\nxf40467\AppData\Local\Temp\ccjQdhik.ltrans12.ltrans.o
                                         0x20 (size before relaxing)
 *fill*         0x0000000000080791        0x3 00
 .rodata        0x0000000000080794       0x24 C:\Users\nxf40467\AppData\Local\Temp\ccjQdhik.ltrans12.ltrans.o
                0x0000000000080794                s_aprIdleStHandleCme.259754
                0x00000000000807a8                bDisableSourceRouting
                0x00000000000807ac                zps_pacNwkFrmStdByteFmt
                0x00000000000807b0                zps_pacNwkFrmStdLongFmt
                0x00000000000807b4                zps_pacNwkFrmStdHalfFmt
 .rodata        0x00000000000807b8      0x550 C:\Users\nxf40467\AppData\Local\Temp\ccjQdhik.ltrans13.ltrans.o
                0x00000000000807b8                psAplDefaultDistributedAPSLinkKey
                0x00000000000807bc                au32TimerBaseAddress
                0x00000000000807d0                zps_g_pvApl
                0x00000000000807d4                pwrm_psWakeupCallbacks
 .rodata.str1.1
                0x0000000000080d08       0x2e C:\Users\nxf40467\AppData\Local\Temp\ccjQdhik.ltrans14.ltrans.o
                                         0x3e (size before relaxing)
 .rodata        0x0000000000080d36      0x100 C:\Users\nxf40467\AppData\Local\Temp\ccjQdhik.ltrans14.ltrans.o
                0x0000000000080d36                g_bStopZdpAcks
 .rodata.str1.1
                0x0000000000000000       0x2e C:\Users\nxf40467\AppData\Local\Temp\ccjQdhik.ltrans15.ltrans.o
                                          0x4 (size before relaxing)
 *fill*         0x0000000000080e36        0x2 00
 .rodata        0x0000000000080e38        0xc C:\Users\nxf40467\AppData\Local\Temp\ccjQdhik.ltrans15.ltrans.o
                0x0000000000080e38                u8MaxZpsConfigEp
                0x0000000000080e39                au8EpMapPresent
                0x0000000000080e3c                s_groupPdmTable
 .rodata        0x0000000000080e44        0x8 C:\Users\nxf40467\AppData\Local\Temp\ccjQdhik.ltrans16.ltrans.o
                0x0000000000080e44                pfOverrideProfile
 .rodata.str1.1
                0x0000000000080e4c       0x12 C:\Users\nxf40467\AppData\Local\Temp\ccjQdhik.ltrans17.ltrans.o
                                         0x15 (size before relaxing)
 *fill*         0x0000000000080e5e        0x2 00
 .rodata        0x0000000000080e60       0xe8 C:\Users\nxf40467\AppData\Local\Temp\ccjQdhik.ltrans17.ltrans.o
                0x0000000000080e60                s_apsStSceTbl.248117
                0x0000000000080e74                au32EndDeviceTimeoutConstants
                0x0000000000080eb0                g_psGreenPowerContext
                0x0000000000080eb4                g_u32ApsFcSaveCountBitShift
                0x0000000000080eb8                g_bReverToOldParent
                0x0000000000080ebc                zps_sJoinSceTbl
                0x0000000000080ec8                zps_sActvSceTbl
 .rodata.str1.1
                0x0000000000080f48       0x35 C:\Users\nxf40467\AppData\Local\Temp\ccjQdhik.ltrans20.ltrans.o
                                         0x73 (size before relaxing)
 .rodata        0x0000000000080f7d       0x10 C:\Users\nxf40467\AppData\Local\Temp\ccjQdhik.ltrans21.ltrans.o
 .rodata.str1.1
                0x0000000000080f8d        0x8 C:\Users\nxf40467\AppData\Local\Temp\ccjQdhik.ltrans22.ltrans.o
                                         0x38 (size before relaxing)
 .rodata.str1.1
                0x0000000000080f95        0x5 C:\Users\nxf40467\AppData\Local\Temp\ccjQdhik.ltrans24.ltrans.o
                                          0xa (size before relaxing)
 .rodata.str1.1
                0x0000000000080f9a       0x28 C:\Users\nxf40467\AppData\Local\Temp\ccjQdhik.ltrans27.ltrans.o
 *fill*         0x0000000000080fc2        0x2 00
 .rodata        0x0000000000080fc4      0x118 C:\Users\nxf40467\AppData\Local\Temp\ccjQdhik.ltrans27.ltrans.o
                0x0000000000080fc8                gu32ZCLVersion
                0x0000000000080fcc                ZPS_g_u32MacVersion
                0x0000000000080fd0                PDUM_g_u32Version
                0x0000000000080fd4                ZPS_g_u32TsvVersion
 .rodata.str1.1
                0x0000000000000000        0x6 C:\Users\nxf40467\AppData\Local\Temp\ccjQdhik.ltrans28.ltrans.o
 .rodata        0x00000000000810dc       0x8c C:\Users\nxf40467\AppData\Local\Temp\ccjQdhik.ltrans29.ltrans.o
                0x00000000000810dc                s_aprActvStHandleCme.255656
                0x0000000000081108                CSWTCH.19.114354.114354
                0x0000000000081128                CSWTCH.22.114355.114355
                0x0000000000081148                CSWTCH.16.114353.114353
 .rodata.str1.1
                0x0000000000000000       0x28 C:\Users\nxf40467\AppData\Local\Temp\ccjQdhik.ltrans30.ltrans.o
                                          0x5 (size before relaxing)
 .rodata        0x0000000000081168       0x28 C:\Users\nxf40467\AppData\Local\Temp\ccjQdhik.ltrans30.ltrans.o
                0x0000000000081168                asZgpCommadClusterTable

.text           0x0000000000081190    0x3a530
 *(.text*)
 .text          0x0000000000081190       0x50 ../../ExtendedColorLight/Build/irq_JN516x.o
                0x0000000000081190                PIC_ChannelPriorities
                0x00000000000811a0                PIC_SwVectTable
 .text          0x00000000000811e0       0xd0 ../../ExtendedColorLight/Build/portasm_JN516x.o
                0x00000000000811e0                OSMIUM_HwVectTable
                0x000000000008121c                vExternalException
 .text          0x00000000000812b0     0x2310 C:\Users\nxf40467\AppData\Local\Temp\ccjQdhik.ltrans0.ltrans.o
                0x00000000000812c5                zps_bAplZdoSimpleDescServer
                0x0000000000081513                vZdoServersInit.2887
                0x0000000000081696                vPostMlmeDcfmInd.138350
                0x0000000000081747                ZPS_eTsvOpen
                0x0000000000081764                ZPS_u16NwkNibFindNwkAddr
                0x0000000000081805                zps_bZgpRemoveTxQueue
                0x0000000000081893                ZPS_psZgpFindGpstEntry
                0x00000000000818ea                zps_vSendJoinDcfm
                0x0000000000081931                vGiveUp.261083
                0x0000000000081969                ZPS_u8MacIFTGetChannelMaskCount
                0x00000000000819a9                ZPS_u8MacIFTGetIntfState
                0x00000000000819c7                zps_vNwkHandleCmeGetInterface
                0x0000000000081b15                u32GetScanChannels.isra.3.129285
                0x0000000000081b4a                ZPS_vMacIFTGetChannelMaskFromMacId
                0x0000000000081bce                ZPS_bIsMacAddressUsedInApsTable
                0x0000000000081c9f                bGP_CheckGroupTable
                0x0000000000081d00                eCLD_GroupsCheckGroupExists
                0x0000000000081d6d                iPDM_FilterDuplicateAppendedSegmentsOnList.237729
                0x0000000000081db4                eCLD_ScenesFindActiveScene
                0x0000000000081dd1                u8PDM_CalculateLargestDataRecordStored
                0x0000000000081e02                ZPS_vGetDeviceCurrentData.constprop.13
                0x0000000000081e81                zps_vNwkBttMgrInit
                0x0000000000081eaf                ZPS_vNwkNibClearTables
                0x0000000000081fda                ZPS_u8GrabMutexLock.constprop.276
                0x000000000008201d                ZPS_u8ReleaseMutexLock.constprop.275
                0x0000000000082048                bAHI_SetClockRate.part.0.268934.constprop.270
                0x00000000000820c3                vMicroIntEnableOnly.constprop.265
                0x00000000000820ef                TSV_eStart
                0x000000000008213f                vZGPParseMacMcpsData
                0x00000000000822eb                ZPS_eTsvStart
                0x0000000000082328                zps_sZgpAddTxQueue
                0x0000000000082448                zps_eNwkHandleSceNwkUpdate
                0x000000000008246c                vNwkMcpsSendTimedDfcm
                0x00000000000824b0                zps_eAplZdoBdrmRequestSend
                0x000000000008252b                vProcessTimedList.247853
                0x0000000000082572                zps_vNwkMcpsMgrPostTimed
                0x0000000000082585                zps_vAplAfPostTimerEvent
                0x0000000000082626                zps_vExpireOldRoutes
                0x00000000000826af                zps_eNwkBtrMatch
                0x00000000000827ac                PDM_vEnterCriticalSection
                0x00000000000827db                eZCL_WriteLocalAttributeValue.constprop.261
                0x000000000008280d                eFbStartFbTarget.111404
                0x000000000008284d                eZCL_ReadLocalAttributeValue.constprop.259
                0x0000000000082914                bGP_IsSinkTableEntryPresent
                0x00000000000829a2                u8GetGPDFKeyMAP
                0x00000000000829cd                bACI_ECBencodeStripe.constprop.255
                0x0000000000082a7c                AESSW_vMMOFinalUpdate
                0x0000000000082b3f                AESSW_vHMAC_MMO
                0x0000000000082bdd                ZPS_vZgpTransformKey
                0x0000000000082c60                bGP_GetSecurityDetails.part.9.15580
                0x0000000000082d5c                zps_pvAesGetKeyFromInstallCode
                0x0000000000082de3                zps_vAplSecSetInitialSecurityState.part.4.125408.constprop.230
                0x0000000000082eea                vOtaProcessInternalEncryption.76469
                0x0000000000083025                bGP_GetFreeProxySinkTableEntry.constprop.254
                0x000000000008307e                vACI_OptimisedCcmStar.constprop.252
                0x000000000008326a                bEncryptDecryptKey
                0x00000000000833b1                bGP_IsProxyTableEntryPresent.constprop.251
                0x0000000000083422                bGP_IsDuplicatePkt.constprop.250
                0x0000000000083572                iAHI_WriteDataIntoEEPROMsegment.constprop.245
 .text.unlikely
                0x00000000000835c0       0x43 C:\Users\nxf40467\AppData\Local\Temp\ccjQdhik.ltrans0.ltrans.o
                0x00000000000835c0                vAHI_MemoryHold.268942
 *fill*         0x0000000000083603        0x1 00
 .text          0x0000000000083604     0x2a2c C:\Users\nxf40467\AppData\Local\Temp\ccjQdhik.ltrans1.ltrans.o
                0x00000000000837cf                vMMAC_IntHandlerBbc
                0x00000000000837e9                eBasicTxCompleteHandler
                0x00000000000837ee                vTxRxTimeout.267145
                0x000000000008384b                eSmeUDNTScanDcfm.256992
                0x0000000000083867                vMacMlmeCallBackHandler.112385
                0x0000000000083b3e                APP_cbTimerRadioRecal
                0x0000000000083bca                zps_eNwkHandleSmePollDcfm
                0x0000000000083bf4                eSmeGenlScanDcfm.257555
                0x0000000000083c52                zps_eNwkHandleSmeDutyCycleInd
                0x0000000000083c7c                eRouteRequestDataDcfm.252611
                0x0000000000083cd0                eNldeDataDcfm.250329
                0x0000000000083d00                eSmeEdScScanDcfm.257551
                0x0000000000083d49                zps_eNwkRtDiscMatch.constprop.241
                0x0000000000083d9c                vAHI_SpiReadConfiguration.constprop.240
                0x0000000000083dcd                vConfigureSpi
                0x0000000000083e0d                vAHI_SpiRestoreConfiguration.constprop.237
                0x0000000000083e4e                bAHI_FullFlashRead
                0x0000000000083e91                vOtaFlashRead
                0x0000000000083e93                bAHI_FlashInit.constprop.236
                0x000000000008400c                vOtaFlashInitHw
                0x000000000008400e                pvZCL_HeapAlloc.part.0.95430.constprop.232
                0x0000000000084048                vMiniMac_MLME_SetReq_PanId
                0x0000000000084085                vMiniMac_MLME_SetReq_ShortAddr
                0x0000000000084093                ZPS_vMacPibSetBeaconPayload.constprop.206
                0x00000000000840c8                zps_vInitBeaconPayload
                0x0000000000084123                eCLD_ColourControl_GetRGB.constprop.200
                0x00000000000841fd                eOtaFindCluster.constprop.194
                0x0000000000084246                eOTA_SetServerAddress
                0x0000000000084285                eOTA_RestoreClientData
                0x000000000008431a                vOtaClientUpgMgrMapStates
                0x0000000000084397                eOtaClientReqSeqNoUpdate
                0x00000000000843b4                ZPS_u8MacPibGetBeaconPayload.constprop.189
                0x00000000000843d0                ZTIMER_eOpen.constprop.152
                0x0000000000084412                PDUM_vInit
                0x00000000000844bb                vCLD_ColourControl_xyY2CCT.constprop.107
                0x000000000008456c                eCLD_ColourControl_xyY2HSV.constprop.106
                0x0000000000084734                eCLD_ColourControl_HSV2xyY.constprop.105
                0x0000000000084a4e                eCLD_ColourControlHandleColourModeChange
                0x0000000000084b09                pvHeap_Alloc.constprop.82
                0x0000000000084b0e                zps_eSocMacSetTxBuffers.constprop.81
                0x0000000000084b47                eCLD_OnOffSetGlobalSceneControl.constprop.33
                0x0000000000084b6d                CS_bTransitionIsValid
                0x0000000000084d13                zps_bAplZdoServerHandleConfirmAcks.constprop.7
                0x0000000000084d5d                ZPS_eTsvStop
                0x0000000000084d9c                zps_vAplApsStopPollTimer.part.2.122001
                0x0000000000084e23                ZPS_vDefaultApsdeResources
                0x0000000000084e91                ZPS_vResetBoundServerContext
                0x0000000000084e94                eEdTimeoutRequestDataDcfm.246786
                0x0000000000084eb5                ZPS_u8GetChannelOffset
                0x0000000000084ee8                vMicroIntRestoreState
                0x0000000000084ef4                PDM_vExitCriticalSection
                0x0000000000084f17                bAHI_WriteEEPROMfixSegmentData
                0x0000000000084f75                bAHI_InitialiseEEPROM
                0x0000000000084fbd                vAHI_ReadDataFromEEPROMregister
                0x0000000000084fea                vAHI_WriteDataIntoEEPROMregister
                0x000000000008501a                iPDM_WriteSegmentHeaderDataIntoEEPROMsegment
                0x0000000000085049                u32RaiseDigitalVoltage
                0x0000000000085069                u8AHI_WakeTimerFiredStatus
                0x000000000008507d                vAHI_WakeTimerStop.part.3.269253
                0x000000000008509d                vAHI_ClockXtalPull
                0x00000000000850ba                vAHI_OptimiseWaitStates
                0x0000000000085106                bAHI_GetClkSource
                0x0000000000085113                vAHI_SwReset
                0x0000000000085144                vAHI_DioSetDirection
                0x0000000000085158                bIssueACIcommand
                0x00000000000851ee                bACI_WriteKey
                0x00000000000851fb                vACI_CmdWaitBusy
                0x0000000000085208                vEcbEncodeStripe.268631
                0x000000000008525f                i16JPT_ConvertEnergyTodBm
                0x0000000000085271                MAC_u64GetExtAddr
                0x000000000008528c                eAppApiDefPlmeGet.part.0.267408
                0x000000000008529b                psSearchForFrameToSend
                0x00000000000852f3                eMiniMac_FrameInProgress
                0x000000000008531e                vRemoveFromTxQueue
                0x000000000008535a                vAddToTxQueue
                0x0000000000085390                u8GetHeaderSize
                0x00000000000853b8                vMiniMac_PLME_SetReq_CcaMode
                0x00000000000853cc                vMiniMac_MLME_SetReq_MaxCsmaBackoffs
                0x00000000000853ec                vMiniMac_MLME_SetReq_MaxBe
                0x000000000008540f                vMiniMac_MLME_SetReq_MinBe
                0x0000000000085432                zps_vSendJoinInd
                0x00000000000854a2                zps_psFormatCmdFrameGeneral
                0x000000000008554e                zps_eNwkFormStInit
                0x000000000008557b                vSendDcfm.258295
                0x00000000000855a1                bCheckMatchingEntry.257744
                0x00000000000855c7                psAddToDiscNt.257540
                0x0000000000085763                eSmeUDNTBeaconInd.257547
                0x0000000000085788                zps_psNwkSlistRemoveFromHead
                0x000000000008579f                zps_psNwkSlistRemove
                0x00000000000857d7                zps_bNwkMcpsMgrRemoveDescrFromLists
                0x0000000000085815                zps_vNwkSlistAddToTail
                0x000000000008582f                zps_vNwkMcpsMgrFreeReqDescr
                0x0000000000085864                zps_vNwkRemoveConflictedBroadcast
                0x00000000000858b9                ZPS_pvNwkSecGetNetworkKey
                0x00000000000858ed                ZPS_vNwkSecResetDevice
                0x0000000000085935                ZPS_bNwkSecHaveNetworkKey
                0x0000000000085969                ZPS_bNwkSecFindMatSet
                0x00000000000859a5                zps_eNwkRtMatch
                0x0000000000085ab3                zps_eNwkRctMatchNwkAddr
                0x0000000000085b1d                ZPS_u8NwkCalcNldeReqOverhead
                0x0000000000085b58                zps_vRemoveNextHop
                0x0000000000085c0d                zps_vRemoveRoute
                0x0000000000085ca4                zps_psNwkRtMatchNwkAddr
                0x0000000000085d1a                ZPS_u8NwkNibNtDiscMatch
                0x0000000000085dfd                ZPS_bNwkNibNtActvMatch
                0x0000000000085eaf                ZPS_u64NwkNibFindExtAddr
                0x0000000000085f55                bCheckNwkAddr
                0x0000000000085f9e                zps_vNwkFreeMcpsHandle
                0x0000000000085fc8                zps_u8NwkAllocateMcpsHandle
                0x0000000000086019                zps_psNwkMcpsMgrFindPendingByNwkDstAddr
 .text          0x0000000000086030     0x2178 C:\Users\nxf40467\AppData\Local\Temp\ccjQdhik.ltrans2.ltrans.o
                0x0000000000086030                psDLISTremoveFromHead
                0x000000000008605b                iPDM_SearchForBufferIdInList
                0x0000000000086090                iPDM_ReadUserDataFromSegmentOnListWithId
                0x00000000000860ce                iPDM_SearchForBufferIdInFileSystem
                0x00000000000860e1                iPDM_ReadUserDataFromSegmentWithId
                0x0000000000086116                PDM_eReadDataFromRecord.part.0.235920
                0x000000000008619d                PDM_eReadDataFromRecord
                0x00000000000861bd                vLoadAplRecord.129269
                0x00000000000861eb                vLoadNwkRecord.248829
                0x0000000000086223                iPDM_SearchForSpecificSegmentInList
                0x0000000000086255                bPDM_FindLastMarkerSegment.236952
                0x00000000000862a2                vMiniMac_ReturnTxBufferCallback
                0x00000000000862ce                vMMAC_RadioToOffAndWait
                0x00000000000862eb                vStartReceive
                0x00000000000865ea                vMiniMac_NextTransaction
                0x0000000000086654                eTransmit
                0x0000000000086722                zps_vSocMacHandleMcpsVsReqRsp.constprop.248
                0x00000000000868b1                eZCL_TransmitInterPanRequest.constprop.183
                0x0000000000086aa2                eCLD_ZllCommissionCommandNetworkStartRspCommandSend.constprop.182
                0x0000000000086b01                eBuildAndSend.266798
                0x0000000000086b76                ZPS_vMacPibSetRxOnWhenIdle
                0x0000000000086bbc                vMiniMac_TxComplete
                0x0000000000086cad                vTimerFired
                0x0000000000086d82                vMiniMac_Init
                0x0000000000087146                vMiniMac_PLME_SetReq_Power
                0x000000000008715b                vMiniMac_PLME_SetReq_Channel
                0x0000000000087164                eCLD_ScenesSaveClusters.constprop.49
                0x00000000000873f9                vCLD_ScenesUpdateSceneValid
                0x0000000000087476                eCLD_OnOffSceneEventHandler.36631
                0x0000000000087511                eCLD_LevelControlUpdate
                0x000000000008784b                eCLD_LevelControlStopTransition
                0x000000000008787e                eCLD_LevelControlSetOnOffState
                0x00000000000879b2                eCLD_ColourControlUpdate
                0x0000000000087e8f                eCLD_ColourControlSceneEventHandler.49143
                0x0000000000087edb                eZCL_CustomCommandReceiveScenes.isra.0.part.1.41515.constprop.29
                0x0000000000087fcf                u16ZCL_APduInstanceReadStringNBO
                0x00000000000880a6                eZCL_GetAttributeTypeSizeFromBuffer
                0x000000000008811f                u16ZCL_GetTxPayloadSize
                0x0000000000088157                u8ZdoBindUnbindServerUnpackApdu
 .text          0x00000000000881a8     0x1bb2 C:\Users\nxf40467\AppData\Local\Temp\ccjQdhik.ltrans3.ltrans.o
                0x00000000000881d3                vPermitJoinHandleExpiry.251389
                0x00000000000881dc                zps_bAplZdoNodeDescServer
                0x000000000008834e                zps_bAplZdoPowerDescServer
                0x0000000000088472                zps_bAplZdoActiveEpServer
                0x000000000008855b                u16GP_APduInstanceReadWriteLongString
                0x00000000000887a3                vCLD_IdentifyTimerClickCallback.33331
                0x0000000000088818                zps_vNwkHandleCmePermitJoinReq
                0x0000000000088923                boIdValueSearchMatch.236663
                0x000000000008897d                vOtaTimerClickCallback
                0x00000000000889cf                vPostVsMcpsDcfmInd.138364
                0x0000000000088a5b                u16ZCL_APduInstanceWriteNBO
                0x0000000000088ab1                u16ZCL_WriteCommandHeader
                0x0000000000088b29                u16ZCL_APduInstanceReadNBO
                0x0000000000088b7b                u16ZCL_ReadCommandHeader.part.0.86965
                0x0000000000088bf2                u16ZCL_APduInstanceWriteStringNBO.part.0.83963
                0x0000000000088cd0                vEnableReceive.267147
                0x0000000000088d09                psGetTxFrameBuffer
                0x0000000000088d45                psGetAndBuildCoordRealignment
                0x0000000000088d9d                eCLD_ScenesUpdate
                0x000000000008905f                vGP_CallbackForPersistData
                0x00000000000890b3                bGP_GPDFValidityCheck
                0x00000000000892c3                vGP_RemoveGPDFromProxySinkTable
                0x000000000008934c                vGP_RemoveTemperorySinkTableEntries
                0x000000000008938f                vGP_RestorePersistedData
                0x0000000000089453                iPDM_ReadUserDataFromEEPROMsegment
                0x00000000000894cd                iPDM_ReCalculateWearCountAndChecksumAndWriteFileSystemHeader
                0x0000000000089517                vPDM_SetEEPROMandFileSystemValidState
                0x000000000008953e                iPDM_ReadUserDataFromFileSystemRecord
                0x000000000008955e                iPDM_CompareDataInFileRecords.236923
                0x000000000008959a                vPDM_WriteFileSystemRecordAndSegmentDataIntoEEPROMsegment
                0x00000000000895d5                iPDM_ReadSegmentHeaderDataFromEEPROMsegment
                0x000000000008962e                vAppInitOTA
                0x00000000000897d4                PWRM_vWakeInterruptCallback
                0x000000000008985b                zps_u8AplApsConstructAndPostLoopBackDataInd.122115
                0x0000000000089994                u8PostUnicastMsgToNHLE.122123
                0x00000000000899cd                zps_vNwkMcpsMgrInit
                0x0000000000089a6f                eCLD_ScenesSetLastConfiguredBy.isra.2.41531
                0x0000000000089aa6                bGP_GetGPDKey
                0x0000000000089b32                u8GP_SecurityProcessCallback
 .text          0x0000000000089d5a     0x1d85 C:\Users\nxf40467\AppData\Local\Temp\ccjQdhik.ltrans4.ltrans.o
                0x0000000000089d5a                eSmeAcScBeaconInd.257749
                0x0000000000089dfd                zps_bAplZdoNwkAddrServer
                0x000000000008a104                vOtaUpgManClientStateCountDown.76509
                0x000000000008a285                vOtaFlashWrite
                0x000000000008a288                vOtaFlashErase
                0x000000000008a2dd                vRetryCcaFailure
                0x000000000008a32a                PWRM_vManagePower
                0x000000000008a475                vMiniMac_McpsCallback
                0x000000000008a72b                eMcpsTxCompleteHandler.266113
                0x000000000008a759                psDLISTsearchFromHead
                0x000000000008a782                eCLD_ScenesAddScene
                0x000000000008a856                eCLD_ScenesFindScene
                0x000000000008a8a4                eCLD_ScenesStoreScene
                0x000000000008a95c                eCLD_ScenesRemoveAllScenes
                0x000000000008a9f5                vFreePendingReqDescr
                0x000000000008aa5f                vHandleRouteDiscoveryExpiry.252150
                0x000000000008aabd                bGP_GiveCommIndAndUpdateTable
                0x000000000008b1ef                bHasTimerFired.101583
                0x000000000008b25b                u16ZCL_WriteAttributeValueIntoBuffer
                0x000000000008b2e1                eHandleRemoveBroadcastEndpointsFromGroup.123655
                0x000000000008b33b                ZPS_bSecDecrypt
                0x000000000008b42c                zps_vNwkMcpsMgrTidyBtrReqDescr
                0x000000000008b470                vNwkBttTimerExpiry.255704
                0x000000000008b592                eZCL_SetReceiveEventAddressStructure
                0x000000000008b612                ZPS_bSecEncrypt
                0x000000000008b7c3                eZCLAddReport
                0x000000000008ba71                eZCL_CreateLocalReport.constprop.120
 .text          0x000000000008badf     0x1c63 C:\Users\nxf40467\AppData\Local\Temp\ccjQdhik.ltrans5.ltrans.o
                0x000000000008bb19                eSmeASFlBeaconInd.257563
                0x000000000008bb3b                APP_cbTimerButtonScan
                0x000000000008bf22                zps_bAplZdoMatchDescServer
                0x000000000008bf36                eBeaconReqSent.266792
                0x000000000008bf5d                eSmeAcScBeaconInd.257571
                0x000000000008c06d                vMiniMac_ReturnRxBufferCallback
                0x000000000008c099                eCLD_ScenesCountScenes
                0x000000000008c0b3                ZPS_vSetKeys
                0x000000000008c15d                vStartEffect
                0x000000000008c2b4                boPDM_IsBitmapSaturated.235605
                0x000000000008c2fd                APP_bButtonInitialise
                0x000000000008c343                ZPS_u8MacIFTAddUpdateChannelMask
                0x000000000008c3dd                ZPS_u16MacIFTGetIDByChannelMask
                0x000000000008c423                zps_eAplAibSetApsChannelMask
                0x000000000008c44e                zps_psAllocateAndFormatMacHdr
                0x000000000008c7b1                zps_psNwkInitCmdFrame
                0x000000000008c830                eSendLinkStatusDataDcfm.part.1.245528
                0x000000000008c957                bPCA9634_WriteRegister
                0x000000000008c9d5                bRGB_LED_SetLevel
                0x000000000008ca22                vLI_UpdateDriver
                0x000000000008ca68                vLI_Start.constprop.173
                0x000000000008cad0                bRGB_LED_On
                0x000000000008cae4                bRGB_LED_Off
                0x000000000008cb19                vRGBLight_SetLevels
                0x000000000008cb4b                APP_vHandleIdentify
                0x000000000008cbaf                vUpdateBulbFromZCL.7758
                0x000000000008cc25                BDB_eTlSendScanResponse.110010.constprop.171
                0x000000000008cdaf                zps_vDefaultNwkLayer
                0x000000000008cfe6                vDLISTaddToHead
                0x000000000008d00f                vDLISTaddToTail
                0x000000000008d032                psDLISTremove
                0x000000000008d081                eZCL_TimerRegister.part.1.103641.constprop.116
                0x000000000008d218                vApp_GP_RegisterDevice.constprop.112
                0x000000000008d3f0                eGp_BufferTransmissionPacket
                0x000000000008d559                bGP_AliasPresent
                0x000000000008d6a4                vBackUpTxQueueMsg
 .text.unlikely
                0x000000000008d742       0x31 C:\Users\nxf40467\AppData\Local\Temp\ccjQdhik.ltrans5.ltrans.o
                0x000000000008d742                eCLD_ZllCommissionCommandNetworkJoinRouterRspCommandSend.constprop.181
 .text          0x000000000008d773     0x1c9b C:\Users\nxf40467\AppData\Local\Temp\ccjQdhik.ltrans6.ltrans.o
                0x000000000008d773                vPDM_MoveAllDataFromListToList.constprop.264
                0x000000000008d7b0                vPDM_MoveAllDataWithBufferIdFromListToList
                0x000000000008d86e                vPDM_DeleteSegmentsWithIdFromFileSystem
                0x000000000008d88f                PDM_vDeleteDataRecord
                0x000000000008d8c6                vAPP_GP_ResetData
                0x000000000008d8fd                vPDM_MoveAllDataWithBufferIdAndStateFromListToList
                0x000000000008d982                iPDM_CreateCandidateBufferList
                0x000000000008da86                iPDM_ReconstructReplacedDataTable
                0x000000000008dc63                vPDM_MoveAllDataToDeAllocList.constprop.263
                0x000000000008dc8b                vPDM_DeleteAppendedSequence
                0x000000000008dd2d                iPDM_ReplaceChangedSegmentInSequence
                0x000000000008de2d                PDM_eSaveRecordData
                0x000000000008e1c9                zps_vAplSaveRecord
                0x000000000008e277                ZPS_vNwkSaveRecord
                0x000000000008e2a3                ZPS_vRemoveEntryFromAddressMap
                0x000000000008e2ec                ZPS_vNwkSaveAllRecords
                0x000000000008e316                ZPS_vNwkNibSetNwkAddr
                0x000000000008e33f                zps_eNwkHandleSceRejnResponse
                0x000000000008e39c                ZPS_vNwkNibSetExtPanId
                0x000000000008e3cd                ZPS_vNwkNibSetKeySeqNum
                0x000000000008e3e0                ZPS_vNwkNibSetDepth
                0x000000000008e416                ZPS_vNwkNibSetUpdateId
                0x000000000008e440                vSendNetworkUpdate.246648
                0x000000000008e575                ZPS_vNwkNibSetPanId
                0x000000000008e593                ZPS_vNwkNibSetCapabilityInfo
                0x000000000008e5c0                ZPS_vNwkNibSetChannel
                0x000000000008e5df                zps_u8NwkHandleRejoinReq
                0x000000000008e69f                zps_vProcessLocalAddrConflict
                0x000000000008e74a                vGP_SendResponseGPDF
                0x000000000008e817                ZPS_vNwkSaveNt
                0x000000000008e853                ZPS_vNwkPurgeMacAddressAndRelatedEntries.part.5.249442
                0x000000000008e964                ZPS_vNtSetUsedStatus
                0x000000000008ea32                zps_bAplZdoParentAnnceServer
                0x000000000008ebcc                zps_vBuildSortedActvNTList
                0x000000000008ec98                zps_eNwkHandleSceLeave
                0x000000000008ee34                zps_vNwkHandleCmeLeaveReq
                0x000000000008ef52                zps_vCleanUnAuthenHandleExpiry
                0x000000000008f07f                eUnsolicitedRejoinRspDataDcfm.246660
                0x000000000008f0aa                eRejoinRspDataDcfm.260253
                0x000000000008f156                vFinish.261541
                0x000000000008f1ac                zps_eNwkHandleSceNwkEdTimeoutReq
                0x000000000008f2a7                zps_eNwkHandleSmeCommStatusInd
                0x000000000008f361                ZPS_vNwkSaveSecMat
                0x000000000008f375                iPDM_VerifyDataSequenceWithBufferId
 *fill*         0x000000000008f40e        0x2 00
 .text          0x000000000008f410     0x21d8 C:\Users\nxf40467\AppData\Local\Temp\ccjQdhik.ltrans7.ltrans.o
                0x000000000008f410                vMiniMac_MlmeCallback
                0x000000000008f608                vSendMlmeCommStatusFromTxFrame
                0x000000000008f65e                zps_vSocMacHandleMlmeVsReqRsp.constprop.211
                0x000000000008fb93                zps_sNwkLibSubmitScan
                0x000000000008fbcc                zps_vNwkDiscUpdateNT
                0x000000000008fc70                eSmeEdScScanDcfm.258299
                0x000000000008fd20                zps_vNwkHandleCmeEdScanReq
                0x000000000009012e                vScanBeaconReceived
                0x000000000009016d                vRunningRxCallback
                0x000000000009046f                vPostDcfm.266809
                0x00000000000904d8                vScanNextChannel.266796
                0x000000000009068a                zps_bGetFlashCredential
                0x000000000009068f                zps_psFindKeyDescr
                0x00000000000907b0                vSaveScenesNVM
                0x0000000000090857                eZLO_RegisterExtendedColourLightEndPoint.constprop.92
                0x000000000009110c                eCLD_GroupsRemoveAllGroups
                0x00000000000911b7                APP_vRemoveAllGroupsAndScenes
                0x00000000000911c9                APP_vFactoryResetRecords
                0x000000000009148d                vR21_ConvertToR22_BindingTable.4806
 .text          0x00000000000915e8     0x240c C:\Users\nxf40467\AppData\Local\Temp\ccjQdhik.ltrans8.ltrans.o
                0x00000000000915e8                vNwkMcpsTimerCallback
                0x0000000000091602                zps_eSceGenlIllegal
                0x0000000000091609                zps_eSmeGenlIllegal
                0x0000000000091610                zps_bAplZdoBindRequestServer
                0x0000000000091748                vPostMcpsDcfmInd.138357
                0x000000000009174b                psGetVsMcpsBuf.138361
                0x0000000000091754                psGetMlmeBuf.138347
                0x000000000009175d                psGetMcpsBuf.138354
                0x0000000000091766                zps_vExpireRequestKeyReq.129208
                0x00000000000917a2                psGetNlmeBuf.119491
                0x00000000000917ab                psGetNldeBuf.119512
                0x00000000000917b4                psGetApsmeBuf.119498
                0x00000000000917ba                psGetApsdeBuf.119505
                0x00000000000918d3                APP_bMultimaskJoinCallBack
                0x00000000000918df                vMacMcpsCallBackHandler.112389
                0x00000000000918f0                vLoopbackTimerCallback
                0x0000000000091a80                APP_vGenCallback
                0x0000000000091a9f                ZPS_u64NwkNibGetMappedIeeeAddr
                0x0000000000091acf                bIsBindTableMatch.123692
                0x0000000000091b37                eRemoveEntryInBindingTable.123696
                0x0000000000091bbb                zps_eAplTrustCenterFindDevice
                0x0000000000091bff                ZPS_vSetExtendedStatus
                0x0000000000091c11                eAllocateNPDU.114648
                0x0000000000091c74                PDUM_eNPduClone
                0x0000000000091cc0                PDUM_hAPduAllocateAPduInstance
                0x0000000000091d1a                hZCL_AllocateAPduInstance
                0x0000000000091d57                zps_eAplZdoSendZdpResponse
                0x0000000000091da0                bSendResponse.156495
                0x0000000000091de3                zps_psApsApsAllocateDcfmRecord
                0x0000000000091e51                zps_u8CalcLinkCost
                0x0000000000091e8d                zps_u8NwkLibChannelLow
                0x0000000000091e9c                zps_u64NwkLibFromPayload
                0x0000000000091edb                zps_vNwkLibU64ToPayload
                0x0000000000091f08                zps_eNwkDcfmIndPost
                0x0000000000091f2a                zps_psNwkDcfmIndGetBuf
                0x0000000000091f4c                zps_vSendNwkStatusInd
                0x0000000000091f7c                eLeaveDataDcfmRemoteLeave.243837
                0x0000000000091fd7                psSLISTsearch
                0x0000000000092017                psSLISTremove
                0x0000000000092095                psSLISTgetNext
                0x00000000000920b9                iSLISTnumberOfNodes
                0x00000000000920d0                u8PDM_CalculateFileSystemCapacity
                0x00000000000920e5                u8PDM_ReadSequenceNumber
                0x0000000000092108                boSegmentNumberDeleteSearchMatch.237110
                0x0000000000092123                u8PDM_ReadSegmentDataSize
                0x0000000000092137                u32PDM_ReadFileSystemHeaderWearCount
                0x000000000009214d                boSearchForWearCountSubstitute.237430
                0x0000000000092173                boSearchForWearCountInsertPoint.236659
                0x0000000000092191                vPDM_WriteFileSystemHeaderWearCount
                0x00000000000921a3                vPDM_ReadBitmapHeader.235570
                0x00000000000921c2                RND_u32GetRand256
                0x00000000000921df                RND_u32GetRand
                0x0000000000092207                u16CalculateFailedTxCount
                0x0000000000092237                vZdoIeeeAddrServerSendExtendResponse.part.0.142448
                0x000000000009229b                vZdoNwkAddrServerSendExtendResponse.part.0.141182
                0x00000000000922ff                zps_bPerformLeaveActionDecider
                0x0000000000092304                vHandleUpdateDeviceIndication.129240
                0x000000000009232e                zps_vByteCopy.part.2.125380
                0x000000000009234a                ZPS_vRunningCRC32
                0x000000000009237a                zps_vAplApsInitDuplicateTable
                0x000000000009239d                eHandleRemoveNonBroadcastEndpointsFromGroup.123672
                0x0000000000092415                eHandleAddEntryToGroupTable.123659
                0x0000000000092471                zps_vAplApsInitFragTransmitPool
                0x0000000000092492                zps_vAplApsFillAndPostApsAck
                0x00000000000924fc                zps_u8AplApsFreeMsgHandle
                0x0000000000092566                zps_vAplApsInitSyncMsgPool
                0x000000000009259e                zps_vAplApsInitFragReceivePool
                0x00000000000925c1                vFillDataIndStruct.119169
                0x000000000009261f                vFillApduErrorEvent.119162
                0x0000000000092662                bCheckProfile.119157
                0x00000000000926a9                vWrite64Nbo
                0x00000000000926d6                vWrite32Nbo
                0x00000000000926ee                ZPS_bIsGroupPresent
                0x0000000000092726                PDUM_u16SizeNBO
                0x0000000000092784                PDUM_u16APduInstanceWriteStrNBO
                0x0000000000092903                PDUM_eNPduReadFooterNBO.part.5.114717
                0x0000000000092948                PDUM_u16APduInstanceReadNBO
                0x0000000000092993                PDUM_u16APduInstanceWriteNBO
                0x00000000000929fd                PDUM_thAPduInstanceGetApdu
                0x0000000000092a18                PDUM_eAPduFreeAPduInstance
                0x0000000000092a7e                zps_bAplZdoMgmtLqiServer
                0x0000000000092cb3                zps_bAplZdoMgmtRtgServer
                0x0000000000092df3                PDUM_eAPduInstanceSetPayloadSize
                0x0000000000092e1b                PDUM_eNPduWriteDataFromBuffer
                0x0000000000092e75                PDUM_eNPduWriteDataToBuffer
                0x0000000000092ed3                PDUM_eNPduWriteFromBuffer
                0x0000000000092efc                PDUM_eNPduDescend
                0x0000000000092f22                PDUM_eNPduAscend
                0x0000000000092f48                PDUM_eNPduClaimData
                0x0000000000092fb5                PDUM_eNPduAppendDataNBO
                0x0000000000093012                PDUM_eNPduClaimHeader
                0x0000000000093035                PDUM_eNPduReadHeaderNBO
                0x0000000000093088                PDUM_eNPduPrependHeaderNBO
                0x00000000000930e3                PDUM_eNPduFree
                0x0000000000093141                ZPS_vInterceptMcpsDataCallback
                0x00000000000931a3                PDUM_eNPduInitDescending
                0x00000000000931be                zps_vInitAPSMECmdHdr
                0x00000000000931f5                ZPS_u8MacGetChannelOffsetFromMask
                0x0000000000093204                ZPS_eMacValidateChannelMask
                0x0000000000093233                InvShiftRows
                0x00000000000932c6                InvSubBytes
                0x000000000009330c                AddRoundKey
                0x000000000009334d                getSBoxValue.110893
                0x000000000009336f                pvZCL_GetAttributePointer
                0x00000000000933e5                eZCL_StoreChangeAttributeValue
                0x0000000000093484                eZCL_SearchForAttributeEntry
                0x0000000000093529                eZCL_SetLocalAttributeValue
                0x00000000000935d7                vCLD_ScenesGenerateIndividualAttributeCallback
                0x0000000000093631                eZCL_SearchForClusterEntry
                0x00000000000936ab                eZCL_BuildTransmitAddressStructure
                0x0000000000093718                eZCL_FindCluster
                0x0000000000093769                eCLD_GroupsSetIdentifying
                0x000000000009378e                eCLD_LevelControlClusterIsPresent
                0x00000000000937a7                eCLD_OnOffGetState
                0x00000000000937d8                bCLD_ColourControlStopExecutionOfCommand.isra.0.49866
                0x0000000000093811                eGP_FindGpCluster
                0x0000000000093852                u16GP_GetStringSizeOfSinkTable
                0x000000000009390b                u16GP_GetStringSizeOfProxyTable
 .text          0x00000000000939f4     0x217a C:\Users\nxf40467\AppData\Local\Temp\ccjQdhik.ltrans9.ltrans.o
                0x0000000000093ace                vR21_ConvertToR22_NT.4811
                0x0000000000093b86                vR21_ConvertToR22_Aib.4848
                0x0000000000093beb                vR21_ConvertToR22_Nib.4892
                0x0000000000093c79                vSaveZCLRecord.7751
                0x0000000000093d87                vResetZCLRecords
                0x0000000000093da7                vRestetOTADiscovery.9263
                0x0000000000093dd3                vLoadDefaultConfigForReportable
                0x0000000000093e1b                vRestoreDefaultRecord
                0x0000000000093e88                vManagePowerOnCountInit
                0x0000000000093ed1                APP_cbTimerPowerCount
                0x0000000000093f4a                zps_eAplZdoGroupEndpointRemove
                0x0000000000093fdb                vGP_RemoveGPEPFromGroup
                0x0000000000094076                zps_eAplAibSetApsUseExtendedPanId
                0x000000000009408c                zps_bNwkFindAddIeeeAddr
                0x0000000000094214                vInitUnknownNeighbor.247860.constprop.161
                0x000000000009426d                eMakeEntryInBindingTable.isra.2.123706
                0x0000000000094308                zps_eAplZdoAddReplaceLinkKey_W
                0x00000000000943cc                zps_eNwkHandleSceLinkStatus
                0x0000000000094500                ZPS_bNwkNibAddrMapAddEntry
                0x00000000000946b5                zps_vAgeRouter
                0x00000000000946ee                zps_eNwkHandleSdeActvDcfmData
                0x0000000000094873                vMcpsMgrTimeoutExpiry
                0x00000000000948dd                zps_vNwkSecondTickHandleExpiry
                0x0000000000094ac8                zps_eNwkHandleSceRouteRequest
                0x0000000000094f9c                zps_sNwkNibNtCheckJoin.part.8.249575
                0x0000000000095255                zps_vNwkHandleCmeDirectJoinReq
                0x00000000000952fe                zps_vJoinInitNtParent
                0x00000000000954e2                vContinueRejoin.260249
                0x0000000000095589                zps_vCheckActvNtForDuplicate
                0x0000000000095629                eSmeOrphScanDcfm.261554
                0x00000000000956a1                eCheckAddrConflict.isra.7.246915
                0x000000000009573c                zps_vSaveAllZpsRecords
                0x000000000009575c                ZPS_vSetDevicePreviousData.constprop.14
                0x00000000000958db                vAplSecRemoveLinkKey.129325
                0x00000000000959ad                ZPS_vNMPurgeEntry
 .text          0x0000000000095b6e     0x1d7a C:\Users\nxf40467\AppData\Local\Temp\ccjQdhik.ltrans10.ltrans.o
                0x0000000000095b6e                zps_bAplZdoIeeeAddrServer
                0x0000000000095cca                vPDM_AddFileSystemElementToListInAscendingWearCountOrder
                0x0000000000095df2                vPDM_MoveFileRecordFromListToList
                0x0000000000095e14                vPDM_MoveRecordToDeAllocList
                0x0000000000095e34                iPDM_GetWearLevelledBuffer
                0x0000000000095f07                iPDM_WriteSegmentHeaderAndData
                0x0000000000096055                vIncrementFrameCounterInPdm.isra.0.249281
                0x000000000009634c                ZPS_vNwkMacDataPollRequest
                0x00000000000964e3                vProcessListsForSubmission.247949
                0x000000000009672d                zps_vNwkMcpsMgrPost
                0x0000000000096941                zps_vNwkHandleCmeRouteDiscoveryReq
                0x0000000000096b0f                zps_psSendFrm
                0x0000000000096e6d                zps_psSendBroadcastFrm.part.0.258984
                0x0000000000096ed5                zps_eNwkHandleSceRouteRecord
                0x0000000000096fcc                zps_psNwkSendLeaveCmd
                0x0000000000097034                zps_psNwkPropagateLocalLeave
                0x000000000009705c                zps_psSendNetworkStatusCmd
                0x00000000000970c9                zps_eDefaultDataDcfm
                0x00000000000971bb                vSendNetworkReport.246644
                0x0000000000097299                psSendRouteReplyCmd.252593
                0x00000000000973ab                zps_eNwkHandleSceRouteReply
                0x000000000009767e                zps_psSendNetworkLinkPowerDelta.254019
                0x0000000000097710                zps_eNwkHandleSceNwkLinkPowerDelta
                0x000000000009772a                zps_psNwkSendRejoinReqCmd
                0x00000000000977a8                iPDM_ReconstructAtRunTimeReplacedDataTable
 .text          0x00000000000978e8     0x1b6c C:\Users\nxf40467\AppData\Local\Temp\ccjQdhik.ltrans11.ltrans.o
                0x00000000000978e8                vHandleEdTimeoutReqExpiry.246652
                0x0000000000097991                zps_vNwkHandleCmeIdleNwkFormReq
                0x0000000000097a44                zps_vReAttemptScanTimerHandleExpiry
                0x0000000000097aa2                zps_vNwkHandleCmeNwkDiscReq
                0x0000000000097b84                zps_vNwkHandleCmeActvStartRouterReq
                0x0000000000097cbd                vHandleNwkLocalUpdateAfterBcast.246665
                0x0000000000097d10                vHandleNwkRemoteUpdateAfterBcast.246656
                0x0000000000097d63                eSmeAcScScanDcfm.258306
                0x00000000000980d9                zps_eNwkHandleSmeBeaconNotifyInd
                0x0000000000098167                zps_eNwkHandleSceNwkReport
                0x00000000000981ed                ZPS_pvNwkCtor.constprop.204
                0x00000000000986d2                ZPS_vNwkHandleNlmeReqRsp
                0x000000000009874f                zps_vAplAfPostEvent
                0x0000000000098a7a                vPostApsdeDcfmInd.119508
                0x0000000000098c6c                zps_vHandleApsdeDataFragIndNotSupported
                0x0000000000098cc2                vZGPdCfm
                0x0000000000098cf8                vZgpAgeTxQueue
                0x0000000000098da6                vHandleApsInterPanDcfmData
                0x0000000000099023                vApsInterPanMcpsDataInd
                0x00000000000991ca                zps_eAplZdoNlmePermitJoiningWrapper
                0x00000000000991f2                zps_bAplZdoPermitJoiningServer
                0x00000000000992bc                vStartScanTimerExpiry.157758
                0x00000000000992f8                vChangeChannelTimerExpiry.157762
                0x000000000009936f                eLeaveReset.243842
                0x00000000000993da                eLeaveDataDcfmLocalLeave.243847
 *fill*         0x0000000000099454        0x0 00
 .text          0x0000000000099454     0x1cdc C:\Users\nxf40467\AppData\Local\Temp\ccjQdhik.ltrans12.ltrans.o
                0x0000000000099454                zps_vNwkHandleCmeNwkJoinReq
                0x000000000009979a                zps_vNwkHandleCmeNwkActvJoinReq
                0x00000000000997a6                zps_eNwkHandleSmeOrphanInd
                0x00000000000997b7                zps_eNwkSendJoinResponse
                0x000000000009999d                zps_vProcessChildAddrConflict
                0x0000000000099c0c                vSdeHandleMcpsDataInd.247974.constprop.155
                0x000000000009ac48                ZPS_vNwkNibCheckAndUpdateAddresses
                0x000000000009ace9                zps_bAplZdoDeviceAnnceServer
                0x000000000009af99                zps_eNwkHandleSceNwkStatus
 .text          0x000000000009b130     0x1630 C:\Users\nxf40467\AppData\Local\Temp\ccjQdhik.ltrans13.ltrans.o
                0x000000000009b130                AppColdStart
 .text          0x000000000009c760     0x1dbc C:\Users\nxf40467\AppData\Local\Temp\ccjQdhik.ltrans14.ltrans.o
                0x000000000009cb2d                ZPS_vAplHandleApsdeReqRsp
                0x000000000009cf46                zps_eAplZdpApsdeReqInternal
                0x000000000009cfb5                zps_eAplZdpRequestApsdeReq
                0x000000000009d02a                zps_eAplZdpDeviceAnnceRequest.part.0.173014
                0x000000000009d077                zps_eAplZdoStartRouter.part.14.129394
                0x000000000009d0eb                BDB_vTlStateMachine
                0x000000000009e126                zps_bAplZdoDefaultServer
                0x000000000009e3e3                zps_eAplZdpBindResponse
                0x000000000009e404                zps_eZdpUnbindResponse
                0x000000000009e425                zps_eZdpMgmtLeaveResponse
                0x000000000009e446                zps_eZdpMgmtPermitJoiningResponse
                0x000000000009e467                vNsTclkSendReqKey.109079
 .text          0x000000000009e51c     0x1c02 C:\Users\nxf40467\AppData\Local\Temp\ccjQdhik.ltrans15.ltrans.o
                0x000000000009ed52                zps_eNwkHandleSmeOrphanInd.part.1.260408
                0x000000000009ee20                eRejoinNetwork.129287
                0x000000000009eee5                APP_vInitialiseNode
                0x000000000009fdb9                eDiscoverNetworks
                0x000000000009fe15                eStartRouter
                0x000000000009ff06                vHandleJoinDCfm.isra.19.129687
 *fill*         0x00000000000a011e        0x2 00
 .text          0x00000000000a0120     0x1dcc C:\Users\nxf40467\AppData\Local\Temp\ccjQdhik.ltrans16.ltrans.o
                0x00000000000a01cf                vZdoBdrmSendNextTimedRequest
                0x00000000000a0471                eZCL_TransmitDataRequest
                0x00000000000a091a                eZCL_SendDefaultResponse
                0x00000000000a0a19                eZCL_CustomCommandReceive
                0x00000000000a0b87                eOtaCommandHandler
                0x00000000000a112f                eGP_HandleZgpCommissioningNotification
                0x00000000000a172c                eGP_HandleZgpTranslationResponse
                0x00000000000a1a2e                eCLD_BasicCommandHandler
                0x00000000000a1a9d                eCLD_OnOffCommandReceive
                0x00000000000a1aa6                vReportTimerClickCallback
 .text          0x00000000000a1eec     0x1b94 C:\Users\nxf40467\AppData\Local\Temp\ccjQdhik.ltrans17.ltrans.o
                0x00000000000a22bc                vZgpSendTxAfterRx
                0x00000000000a22fb                eOrphanNotificationSent.266788
                0x00000000000a2344                zps_vAplApsmeCmdMgrRetryTimeout.123632
                0x00000000000a26aa                zps_eNwkHandleSmeAssocInd
                0x00000000000a2765                vTransformKey.isra.0.125375
                0x00000000000a27d0                zps_eAplSecEncryptPacket
                0x00000000000a28c5                zps_eAplSendApsmeCmdFrame
                0x00000000000a2a6a                zps_eAplApsmeUpdateDeviceReqRsp.part.4.123805
                0x00000000000a2bb9                vPostNlmeDcfmInd.119494
                0x00000000000a334f                zps_eAplZdoLeaveNetwork.constprop.201
                0x00000000000a3376                vNsLeaveNwk.109081
                0x00000000000a3386                zps_bAplZdoMgmtLeaveServer
                0x00000000000a357b                zps_vDStub_DataReq.constprop.42
                0x00000000000a3871                vSendToTxQueue
                0x00000000000a3933                bDuplicateCheck.125188
 .text          0x00000000000a3a80     0x1dd8 C:\Users\nxf40467\AppData\Local\Temp\ccjQdhik.ltrans18.ltrans.o
                0x00000000000a3a80                vCLD_GPTimerClickCallback.13810
                0x00000000000a5318                eGP_HandleZgpNotification
 .text          0x00000000000a5858     0x20dc C:\Users\nxf40467\AppData\Local\Temp\ccjQdhik.ltrans19.ltrans.o
                0x00000000000a5858                BDB_vRejoinTimerCb
                0x00000000000a58b2                eZCL_CustomCommandSend.constprop.199
                0x00000000000a5b5b                eGP_ZgpPairingSend.constprop.46
                0x00000000000a5e64                vFillAndSendPairingCmdFromSinkTable
                0x00000000000a6052                eGP_HandleZgpPairingConfig
                0x00000000000a69e6                eGP_ZgpNotificationSend.constprop.47
                0x00000000000a6ae1                eGP_ProxyCommissioningMode.constprop.197
                0x00000000000a6cc9                vGP_ExitCommMode
                0x00000000000a6d48                eGP_HandleZgpPairing
                0x00000000000a75b3                vApp_GP_EnterCommissioningMode
                0x00000000000a75fa                bdb_taskBDB
 .text          0x00000000000a7934     0x1b67 C:\Users\nxf40467\AppData\Local\Temp\ccjQdhik.ltrans20.ltrans.o
                0x00000000000a7934                zps_bAplZdoBindUnbindServer
                0x00000000000a7d9e                zps_bAplZdoMgmtBindServer
                0x00000000000a7fa1                zps_eZdpNodeDescResponse
                0x00000000000a8049                zps_eZdpParentAnnceResponse
                0x00000000000a80eb                zps_eZdpPowerDescResponse
                0x00000000000a8188                zps_eZdpSimpleDescResponse
                0x00000000000a8295                zps_eZdpActiveEpResponse
                0x00000000000a832b                zps_eZdpMatchDescResponse
                0x00000000000a83c1                zps_eAplZdpMgmtLqiResponse
                0x00000000000a84d1                zps_eZdpNwkAddrResponse
                0x00000000000a85b9                zps_eZdpIeeeAddrResponse
                0x00000000000a86a1                zps_eAplZdpMgmtRtgResponse
                0x00000000000a8830                zps_bAplZdoMgmtNWKUpdateServer
                0x00000000000a8d3c                ZPS_vSecondTimerCallback
                0x00000000000a8f9e                zps_bAplZdoZdoClient
                0x00000000000a914f                BDB_vTlTimerCb
                0x00000000000a915f                zps_eAplAfBoundDataReqNonBlocking
                0x00000000000a9322                vNsSendPermitJoin.109071
                0x00000000000a93b2                vGP_SendDeviceAnnounce
 *fill*         0x00000000000a949b        0x1 00
 .text          0x00000000000a949c     0x1be8 C:\Users\nxf40467\AppData\Local\Temp\ccjQdhik.ltrans21.ltrans.o
                0x00000000000a949c                vOtaUpgManClientStateWaitForRunCommand.76505
                0x00000000000a95ab                vOtaUpgManClientStateDownloadComplete.76501
                0x00000000000a97e3                vOtaUpgManClientStateDownloadInProgress.76497
                0x00000000000a9f98                APP_ZCL_cbEndpointCallback.7741
                0x00000000000aa818                vOtaUpgManClientStateIdle.76488
 .text          0x00000000000ab084     0x18bc C:\Users\nxf40467\AppData\Local\Temp\ccjQdhik.ltrans22.ltrans.o
                0x00000000000ab084                vPostApsmeDcfmInd.119501
                0x00000000000ab69b                vPostNldeDcfmInd.119515
                0x00000000000ac88c                ISR_vTickTimer
                0x00000000000ac8c4                vISR_SystemController
                0x00000000000ac8ec                vISR_Timer4
                0x00000000000ac8fb                vISR_Timer3
                0x00000000000ac90a                vUnclaimedInterrupt
                0x00000000000ac916                vBusErrorHandler
                0x00000000000ac91c                vAlignmentErrorHandler
                0x00000000000ac922                vIllegalInstructionHandler
                0x00000000000ac928                vTrapHandler
                0x00000000000ac92e                vGenericHandler
                0x00000000000ac934                vUnclaimedException
                0x00000000000ac93a                vStackOverflowHandler
 .text          0x00000000000ac940     0x1bb4 C:\Users\nxf40467\AppData\Local\Temp\ccjQdhik.ltrans23.ltrans.o
                0x00000000000ac989                eCLD_IdentifyCommandHandler
                0x00000000000acd1e                eCLD_GroupsCommandHandler
                0x00000000000ad5e2                eGP_GreenPowerCommandHandler
 .text          0x00000000000ae4f4     0x1948 C:\Users\nxf40467\AppData\Local\Temp\ccjQdhik.ltrans24.ltrans.o
                0x00000000000ae4f4                eCLD_ScenesCommandHandler
                0x00000000000af448                eOTA_ClientUpgradeEndRequest
                0x00000000000af4f2                vOtaRequestNextBlock.76285
                0x00000000000af5f6                vOtaHandleTimedBlockRequest.76540
                0x00000000000af697                eOTA_ClientQueryNextImageRequest
                0x00000000000af75a                APP_cbTimerZclTick
 .text          0x00000000000afe3c     0x1814 C:\Users\nxf40467\AppData\Local\Temp\ccjQdhik.ltrans25.ltrans.o
                0x00000000000afe3c                vZCL_EventHandler
 .text          0x00000000000b1650     0x1784 C:\Users\nxf40467\AppData\Local\Temp\ccjQdhik.ltrans26.ltrans.o
                0x00000000000b1650                eCLD_ColourControlCommandHandler
 .text          0x00000000000b2dd4     0x1cef C:\Users\nxf40467\AppData\Local\Temp\ccjQdhik.ltrans27.ltrans.o
                0x00000000000b2dd4                bCLD_ScenesSearchForScene.41867
                0x00000000000b2e07                eCLD_LevelControlSceneEventHandler.34810
                0x00000000000b2e50                DriverBulb_vSetTunableWhiteColourTemperature
                0x00000000000b2e53                bAllowInterPanEp.12618
                0x00000000000b2e9f                APP_ZCL_cbGeneralCallback.7744
                0x00000000000b2ea2                vfExtendedStatusCallBack
                0x00000000000b2ea5                zps_vGetZpsMutex
                0x00000000000b2eae                bCLD_GroupsSearchForGroup.32192
                0x00000000000b2ed3                eZCL_DoesAttributeHaveReportableChange
                0x00000000000b2ef0                eZCL_GetAttributeReportableEntry
                0x00000000000b2fa8                vZCL_AlignNumericAttributeValueTo64.101014
                0x00000000000b30b7                vZCL_SetDefaultReporting
                0x00000000000b30e9                eZCL_BuildClientTransmitAddressStructure
                0x00000000000b311a                u8GetTransactionSequenceNumber
                0x00000000000b312c                bZCL_CheckAttributeDirectionFlagMatch
                0x00000000000b3150                bZCL_CheckManufacturerSpecificAttributeFlagMatch
                0x00000000000b316e                eZCL_GetAttributeTypeSize
                0x00000000000b318d                vZCL_MarkAttributeInvalid
                0x00000000000b325c                u8ZCL_GetAttributeAllignToFourBytesBoundary
                0x00000000000b3271                vReverseMemcpy.part.2.82431
                0x00000000000b32a6                vReverseMemcpy
                0x00000000000b32be                u16ZCL_WriteTypeNBO.part.0.83871
                0x00000000000b330c                sOtaGetHeader
                0x00000000000b341a                u16ZCL_GetStringStructureSize
                0x00000000000b3457                u16ZCL_GetStringAttributeTypeSizeFromBuffer
                0x00000000000b34c8                u16ZCL_GetStringSizeAndBufferFromStructure
                0x00000000000b3557                eZCL_GetAttributeTypeSizeFromStructure
                0x00000000000b35d0                bZCL_SendCommandResponse
                0x00000000000b35ec                vZCL_InitializeClusterInstance
                0x00000000000b3601                u8ZCL_GetEPIdFromIndex
                0x00000000000b3623                eZCL_SearchForEPIndex
                0x00000000000b365d                eZCL_SearchForEPentry
                0x00000000000b3699                eZCL_SearchForEPentryAndCheckManufacturerId
                0x00000000000b36d7                vZCL_PassEventToUser
                0x00000000000b3704                eZCL_Register
                0x00000000000b395b                vWriteU64ToPayLoad.80868
                0x00000000000b3988                vOtaFlashLockWrite
                0x00000000000b39ce                vOtaFlashLockRead
                0x00000000000b3a14                eOtaSetEventTypeAndGiveCallBack
                0x00000000000b3a2f                eOTA_retOtaUseKey
                0x00000000000b3a65                vCLD_ColourControl_CCT2xyY
                0x00000000000b3b4b                bCLD_ColourControl_NumberIsValid.50847
                0x00000000000b3b6a                eCLD_ColourControl_xyY2XYZ.50851
                0x00000000000b3bec                vCLD_ColourControl_XYZ2RGB.50838
                0x00000000000b3d0c                vCLD_ScenesConfigureColourControlExtension.41292
                0x00000000000b3e2e                vGiveIndicationForTranslationTableUpdate
                0x00000000000b3ec4                bBestGPD_GPPLink
                0x00000000000b3ef1                vFillDataIndication
                0x00000000000b403f                u16GetSinkTableString
                0x00000000000b41da                u16GetProxyTableString
                0x00000000000b438c                bGP_CheckGPDAddressMatch
                0x00000000000b4443                psApp_GPGetTranslationTable.10963
                0x00000000000b4491                bAppAddTransTableEntries
                0x00000000000b4519                bGP_ValidateGPDF_Fields
                0x00000000000b45a0                u8GP_GetLQIQuality
                0x00000000000b45c8                vCreateDataIndFromBufferedCmd
                0x00000000000b4699                u16GP_DeriveAliasSrcAddr
                0x00000000000b46db                ZTIMER_eStop
                0x00000000000b472d                ZTIMER_eStart
                0x00000000000b478b                ZQ_bQueueReceive
                0x00000000000b47fc                ZQ_bQueueSend
                0x00000000000b4872                APP_cbTimerGPZclTick
                0x00000000000b4899                vAPP_ZCL_DeviceSpecific_Init
                0x00000000000b4929                vRestoreVars.part.1.9876
                0x00000000000b4948                vSaveVars.part.0.9874
                0x00000000000b4969                vLI_InitVar.9870
                0x00000000000b499a                vCopyRecordsToZCL.7749
                0x00000000000b49fd                vDefaultZCLRecords.7747
                0x00000000000b4a3c                ZPS_psMacIFTGetInterface
                0x00000000000b4a58                vShowException
 *fill*         0x00000000000b4ac3        0x1 00
 .text          0x00000000000b4ac4     0x17d8 C:\Users\nxf40467\AppData\Local\Temp\ccjQdhik.ltrans28.ltrans.o
                0x00000000000b4f3c                eCLD_ZllCommissionCommandHandler
                0x00000000000b519b                eCLD_LevelControlCommandHandler
                0x00000000000b5614                eCLD_OnOffCommandHandler
                0x00000000000b5a28                vZCL_HandleAttributesWriteRequest
                0x00000000000b5eb1                eGP_HandleZgpTranslationTableUpdate
 .text          0x00000000000b629c     0x101a C:\Users\nxf40467\AppData\Local\Temp\ccjQdhik.ltrans29.ltrans.o
                0x00000000000b629c                vMcpsMgrExpiry.247776
                0x00000000000b62ff                zps_vNwkHandleCmeSetInterface
                0x00000000000b64c0                vBbcIntHandler.265684
                0x00000000000b67c4                eAssocRespSent.266001
                0x00000000000b6942                eSmeAsocAssocDcfm.261709
                0x00000000000b69ce                eSmeRjPCPollDcfm.261705
                0x00000000000b6a11                eSceRjRsRejoinRsp.261672
                0x00000000000b6af4                zps_vNwkHandleCmeSyncReq
                0x00000000000b6c17                zps_eRejoinDataDcfm
                0x00000000000b6cd9                zps_vZgpDeviceActiveTimerExpiry
                0x00000000000b6db6                ZPS_vNwkHandleNldeReqRsp
                0x00000000000b6fee                zps_eAplApsmeCmdMgrSendCommand
                0x00000000000b70cf                zps_eAplZdoGroupEndpointAdd
                0x00000000000b71d7                vGP_AddGPEPToGroup
                0x00000000000b7271                eGP_UpdateApsGroupTableAndDeviceAnnounce.constprop.36
 .text          0x00000000000b72b6      0xd43 C:\Users\nxf40467\AppData\Local\Temp\ccjQdhik.ltrans30.ltrans.o
                0x00000000000b72b6                APP_vBdbCallback
                0x00000000000b75e4                vNsDiscoverNwk.109083
                0x00000000000b76fd                BDB_eNsStartNwkSteering
                0x00000000000b7790                BDB_vRejoinCycle
                0x00000000000b7a56                vNsTryNwkJoin.isra.0.109085
                0x00000000000b7bb8                vNsAfterNwkJoin.109073
                0x00000000000b7cc6                BDB_vNsTimerCb
                0x00000000000b7d33                BDB_vZclEventHandler
                0x00000000000b7d88                eGP_TranslateCommandIntoZcl.isra.5.15433
 .text          0x00000000000b7ff9       0x3f C:\Users\nxf40467\AppData\Local\Temp\ccjQdhik.ltrans31.ltrans.o
                0x00000000000b7ff9                zps_isrMAC
                0x00000000000b801c                AppWarmStart
 .text          0x00000000000b8038       0x25 c:/nxp/bstudio_nxp/sdk/tools/ba-elf-ba2-r36379/bin/../lib/gcc/ba-elf/4.7.4/../../../../ba-elf/lib/mcpu_jn51xx_sizeopt\libc.a(lib_a-memcmp.o)
                0x00000000000b8038                memcmp
 .text          0x00000000000b805d       0x19 c:/nxp/bstudio_nxp/sdk/tools/ba-elf-ba2-r36379/bin/../lib/gcc/ba-elf/4.7.4/../../../../ba-elf/lib/mcpu_jn51xx_sizeopt\libc.a(lib_a-memcpy.o)
 .text          0x00000000000b8076       0x12 c:/nxp/bstudio_nxp/sdk/tools/ba-elf-ba2-r36379/bin/../lib/gcc/ba-elf/4.7.4/../../../../ba-elf/lib/mcpu_jn51xx_sizeopt\libc.a(lib_a-memset.o)
                0x00000000000b8076                memset
 .text          0x00000000000b8088       0x12 c:/nxp/bstudio_nxp/sdk/tools/ba-elf-ba2-r36379/bin/../lib/gcc/ba-elf/4.7.4/../../../../ba-elf/lib/mcpu_jn51xx_sizeopt\libc.a(lib_a-strlen.o)
                0x00000000000b8088                strlen
 .text          0x00000000000b809a       0x2b c:/nxp/bstudio_nxp/sdk/tools/ba-elf-ba2-r36379/bin/../lib/gcc/ba-elf/4.7.4/../../../../ba-elf/lib/mcpu_jn51xx_sizeopt\libc.a(lib_a-strncpy.o)
                0x00000000000b809a                strncpy
 *fill*         0x00000000000b80c5        0x3 00
 .text          0x00000000000b80c8      0x204 c:/nxp/bstudio_nxp/sdk/tools/ba-elf-ba2-r36379/bin/../lib/gcc/ba-elf/4.7.4/mcpu_jn51xx_sizeopt\libgcc.a(__udivsi3.o)
                0x00000000000b80c8                __udivsi3
 .text          0x00000000000b82cc       0x30 c:/nxp/bstudio_nxp/sdk/tools/ba-elf-ba2-r36379/bin/../lib/gcc/ba-elf/4.7.4/mcpu_jn51xx_sizeopt\libgcc.a(__divsi3.o)
                0x00000000000b82cc                __divsi3
 .text          0x00000000000b82fc      0x1b0 c:/nxp/bstudio_nxp/sdk/tools/ba-elf-ba2-r36379/bin/../lib/gcc/ba-elf/4.7.4/mcpu_jn51xx_sizeopt\libgcc.a(__umodsi3.o)
                0x00000000000b82fc                __umodsi3
 .text          0x00000000000b84ac       0x24 c:/nxp/bstudio_nxp/sdk/tools/ba-elf-ba2-r36379/bin/../lib/gcc/ba-elf/4.7.4/mcpu_jn51xx_sizeopt\libgcc.a(__modsi3.o)
                0x00000000000b84ac                __modsi3
 .text          0x00000000000b84d0       0x2f c:/nxp/bstudio_nxp/sdk/tools/ba-elf-ba2-r36379/bin/../lib/gcc/ba-elf/4.7.4/mcpu_jn51xx_sizeopt\libgcc.a(_fixunssfsi.o)
                0x00000000000b84d0                __fixunssfsi
 .text          0x00000000000b84ff       0x39 c:/nxp/bstudio_nxp/sdk/tools/ba-elf-ba2-r36379/bin/../lib/gcc/ba-elf/4.7.4/mcpu_jn51xx_sizeopt\libgcc.a(_fixunsdfsi.o)
                0x00000000000b84ff                __fixunsdfsi
 .text          0x00000000000b8538      0x3bd c:/nxp/bstudio_nxp/sdk/tools/ba-elf-ba2-r36379/bin/../lib/gcc/ba-elf/4.7.4/mcpu_jn51xx_sizeopt\libgcc.a(_divdi3.o)
                0x00000000000b8538                __divdi3
 .text          0x00000000000b88f5      0x350 c:/nxp/bstudio_nxp/sdk/tools/ba-elf-ba2-r36379/bin/../lib/gcc/ba-elf/4.7.4/mcpu_jn51xx_sizeopt\libgcc.a(_udivdi3.o)
                0x00000000000b88f5                __udivdi3
 .text          0x00000000000b8c45      0x384 c:/nxp/bstudio_nxp/sdk/tools/ba-elf-ba2-r36379/bin/../lib/gcc/ba-elf/4.7.4/mcpu_jn51xx_sizeopt\libgcc.a(addsf3.o)
                0x00000000000b8c45                __addsf3
 *fill*         0x00000000000b8fc9        0x3 00
 .text          0x00000000000b8fcc      0x218 c:/nxp/bstudio_nxp/sdk/tools/ba-elf-ba2-r36379/bin/../lib/gcc/ba-elf/4.7.4/mcpu_jn51xx_sizeopt\libgcc.a(divsf3.o)
                0x00000000000b8fcc                __divsf3
 .text          0x00000000000b91e4       0x81 c:/nxp/bstudio_nxp/sdk/tools/ba-elf-ba2-r36379/bin/../lib/gcc/ba-elf/4.7.4/mcpu_jn51xx_sizeopt\libgcc.a(eqsf2.o)
                0x00000000000b91e4                __eqsf2
                0x00000000000b91e4                __nesf2
 .text          0x00000000000b9265       0xac c:/nxp/bstudio_nxp/sdk/tools/ba-elf-ba2-r36379/bin/../lib/gcc/ba-elf/4.7.4/mcpu_jn51xx_sizeopt\libgcc.a(gesf2.o)
                0x00000000000b9265                __gesf2
                0x00000000000b9265                __gtsf2
 .text          0x00000000000b9311       0xac c:/nxp/bstudio_nxp/sdk/tools/ba-elf-ba2-r36379/bin/../lib/gcc/ba-elf/4.7.4/mcpu_jn51xx_sizeopt\libgcc.a(lesf2.o)
                0x00000000000b9311                __ltsf2
                0x00000000000b9311                __lesf2
 *fill*         0x00000000000b93bd        0x3 00
 .text          0x00000000000b93c0      0x24c c:/nxp/bstudio_nxp/sdk/tools/ba-elf-ba2-r36379/bin/../lib/gcc/ba-elf/4.7.4/mcpu_jn51xx_sizeopt\libgcc.a(mulsf3.o)
                0x00000000000b93c0                __mulsf3
 .text          0x00000000000b960c      0x3a2 c:/nxp/bstudio_nxp/sdk/tools/ba-elf-ba2-r36379/bin/../lib/gcc/ba-elf/4.7.4/mcpu_jn51xx_sizeopt\libgcc.a(subsf3.o)
                0x00000000000b960c                __subsf3
 .text          0x00000000000b99ae       0x53 c:/nxp/bstudio_nxp/sdk/tools/ba-elf-ba2-r36379/bin/../lib/gcc/ba-elf/4.7.4/mcpu_jn51xx_sizeopt\libgcc.a(fixsfsi.o)
                0x00000000000b99ae                __fixsfsi
 .text          0x00000000000b9a01       0xad c:/nxp/bstudio_nxp/sdk/tools/ba-elf-ba2-r36379/bin/../lib/gcc/ba-elf/4.7.4/mcpu_jn51xx_sizeopt\libgcc.a(floatunsisf.o)
                0x00000000000b9a01                __floatunsisf
 .text          0x00000000000b9aae      0x682 c:/nxp/bstudio_nxp/sdk/tools/ba-elf-ba2-r36379/bin/../lib/gcc/ba-elf/4.7.4/mcpu_jn51xx_sizeopt\libgcc.a(adddf3.o)
                0x00000000000b9aae                __adddf3
 .text          0x00000000000ba130      0x5c8 c:/nxp/bstudio_nxp/sdk/tools/ba-elf-ba2-r36379/bin/../lib/gcc/ba-elf/4.7.4/mcpu_jn51xx_sizeopt\libgcc.a(divdf3.o)
                0x00000000000ba130                __divdf3
 .text          0x00000000000ba6f8       0xca c:/nxp/bstudio_nxp/sdk/tools/ba-elf-ba2-r36379/bin/../lib/gcc/ba-elf/4.7.4/mcpu_jn51xx_sizeopt\libgcc.a(gedf2.o)
                0x00000000000ba6f8                __gedf2
                0x00000000000ba6f8                __gtdf2
 *fill*         0x00000000000ba7c2        0x2 00
 .text          0x00000000000ba7c4      0x488 c:/nxp/bstudio_nxp/sdk/tools/ba-elf-ba2-r36379/bin/../lib/gcc/ba-elf/4.7.4/mcpu_jn51xx_sizeopt\libgcc.a(muldf3.o)
                0x00000000000ba7c4                __muldf3
 .text          0x00000000000bac4c      0x693 c:/nxp/bstudio_nxp/sdk/tools/ba-elf-ba2-r36379/bin/../lib/gcc/ba-elf/4.7.4/mcpu_jn51xx_sizeopt\libgcc.a(subdf3.o)
                0x00000000000bac4c                __subdf3
 .text          0x00000000000bb2df       0x64 c:/nxp/bstudio_nxp/sdk/tools/ba-elf-ba2-r36379/bin/../lib/gcc/ba-elf/4.7.4/mcpu_jn51xx_sizeopt\libgcc.a(fixdfsi.o)
                0x00000000000bb2df                __fixdfsi
 .text          0x00000000000bb343       0x8f c:/nxp/bstudio_nxp/sdk/tools/ba-elf-ba2-r36379/bin/../lib/gcc/ba-elf/4.7.4/mcpu_jn51xx_sizeopt\libgcc.a(extendsfdf2.o)
                0x00000000000bb343                __extendsfdf2
 .text          0x00000000000bb3d2      0x13e c:/nxp/bstudio_nxp/sdk/tools/ba-elf-ba2-r36379/bin/../lib/gcc/ba-elf/4.7.4/mcpu_jn51xx_sizeopt\libgcc.a(truncdfsf2.o)
                0x00000000000bb3d2                __truncdfsf2
 .text          0x00000000000bb510       0x48 ../../../../sdk/JN-SW-4170/Components/Library\libPWRM_JN516x.a(pwrm_setjmp_JN516x.o)
                0x00000000000bb510                setjmp
                0x00000000000bb534                PWRM_longjmp
 .text          0x00000000000bb558       0x27 ../../../../sdk/JN-SW-4170/Components/Library\libHardwareApi_JN5169.a(AHI_Interrupt.o)
                0x00000000000bb558                vAHI_InterruptSetPriority
                0x00000000000bb576                vAHI_InterruptSetActivePriorityLevel
 .text.vMicroSyscall
                0x00000000000bb57f       0x17 ../../../../sdk/JN-SW-4170/Components/Library\libMicroSpecific_JN516x.a(MicroSyscall_ba.o)
                0x00000000000bb57f                vMicroSyscall
 .text          0x00000000000bb596        0x0 ../../../../sdk/JN-SW-4170/Components/Library\libZPSAPL_JN516x.a(zps_apl_version_lc.o)
                0x00000000000bb596                ZPS_APL_Version_3v0
 .text          0x00000000000bb596        0x0 ../../../../sdk/JN-SW-4170/Components/Library\libZPSNWK_JN516x.a(zps_nwk_version_lc.o)
                0x00000000000bb596                ZPS_NWK_Version_3v0
 .text          0x00000000000bb596      0x12a c:/nxp/bstudio_nxp/sdk/tools/ba-elf-ba2-r36379/bin/../lib/gcc/ba-elf/4.7.4/../../../../ba-elf/lib/mcpu_jn51xx_sizeopt\libm.a(lib_a-s_floor.o)
                0x00000000000bb596                floor
                0x00000000000bb6c0                _flash_end = ABSOLUTE (.)

.rela.dyn       0x00000000000bb6c0        0x0
 .rela.text     0x0000000000000000        0x0 ../../ExtendedColorLight/Build/irq_JN516x.o
 .rela.data     0x0000000000000000        0x0 ../../ExtendedColorLight/Build/irq_JN516x.o
 .rela.rodata   0x0000000000000000        0x0 ../../ExtendedColorLight/Build/irq_JN516x.o
                0x000000000400004c                . = ORIGIN (ram)

.data           0x000000000400004c      0x8d8 load address 0x00000000000bb6c0
                0x000000000400004c                _ram_data_start = ABSOLUTE (.)
 *(.data*)
 .data          0x000000000400004c      0x148 C:\Users\nxf40467\AppData\Local\Temp\ccjQdhik.ltrans1.ltrans.o
                0x000000000400004c                u32HeapStart
                0x0000000004000050                asCLD_ColourControlCCTlist
 .data          0x0000000004000194        0x1 C:\Users\nxf40467\AppData\Local\Temp\ccjQdhik.ltrans2.ltrans.o
 *fill*         0x0000000004000195        0x3 00
 .data          0x0000000004000198        0x4 C:\Users\nxf40467\AppData\Local\Temp\ccjQdhik.ltrans3.ltrans.o
                0x0000000004000198                bCanLoopback.122398
 .data          0x000000000400019c       0x34 C:\Users\nxf40467\AppData\Local\Temp\ccjQdhik.ltrans5.ltrans.o
 .data          0x00000000040001d0       0xf8 C:\Users\nxf40467\AppData\Local\Temp\ccjQdhik.ltrans7.ltrans.o
 .data          0x00000000040002c8       0xe8 C:\Users\nxf40467\AppData\Local\Temp\ccjQdhik.ltrans9.ltrans.o
 .data          0x00000000040003b0      0x3f0 C:\Users\nxf40467\AppData\Local\Temp\ccjQdhik.ltrans13.ltrans.o
                0x00000000040003b0                g_asMacInterfaceTable.3092
                0x00000000040003dc                psAplDefaultGlobalAPSLinkKey
                0x00000000040003e0                s_sApl.2981
                0x0000000004000540                sLI_Vars.9905
                0x0000000004000580                g_u16zpsCurrentAddress
                0x000000000400059c                s_keyPairTableStorage.3034
 .data          0x00000000040007a0       0x38 C:\Users\nxf40467\AppData\Local\Temp\ccjQdhik.ltrans14.ltrans.o
                0x00000000040007a0                sTLCertKey
                0x00000000040007b0                sDeviceTable
 .data          0x00000000040007d8        0xc C:\Users\nxf40467\AppData\Local\Temp\ccjQdhik.ltrans15.ltrans.o
                0x00000000040007d8                u8MiniMacConfig_MaxConcurrentAssocResponses
                0x00000000040007dc                psShadowRxBuffer
                0x00000000040007e0                gMAC_u8MaxBuffers
 .data          0x00000000040007e4       0x28 C:\Users\nxf40467\AppData\Local\Temp\ccjQdhik.ltrans17.ltrans.o
                0x00000000040007e4                u16StoredMacSeqNo
                0x00000000040007e6                u8StoredCsma
                0x00000000040007e7                u8StoredMinBe
                0x00000000040007e8                gsGreenPowerContext
 .data          0x000000000400080c       0x58 C:\Users\nxf40467\AppData\Local\Temp\ccjQdhik.ltrans21.ltrans.o
                0x000000000400080c                u32OTAQueryTimeinSec.9805
                0x0000000004000810                asGpToZclLevelControlCmdInfo
 .data          0x0000000004000864        0xc C:\Users\nxf40467\AppData\Local\Temp\ccjQdhik.ltrans24.ltrans.o
 .data          0x0000000004000870       0x9c C:\Users\nxf40467\AppData\Local\Temp\ccjQdhik.ltrans27.ltrans.o
                0x0000000004000870                s_asapduZCLInstances
                0x00000000040008e8                s_asapduZDPInstances
 .data.s_asAPduPool
                0x000000000400090c       0x18 ../../ExtendedColorLight/Build/pdum_apdu.o
                0x000000000400090c                pdum_apduZDP
                0x000000000400090c                s_asAPduPool
                0x0000000004000918                pdum_apduZCL
 *(.data.*)
                0x0000000004000924                . = ALIGN (0x4)
                0x0000000004000924                _ram_data_end = ABSOLUTE (.)

.bss            0x0000000004000924     0x52f8 load address 0x00000000000bbf98
                0x0000000004000924                _bss_start = ABSOLUTE (.)
 *(.bss*)
 .bss           0x0000000004000924       0x10 C:\Users\nxf40467\AppData\Local\Temp\ccjQdhik.ltrans0.ltrans.o
                0x0000000004000924                sIntStorage.237531
 .bss.initinboot
                0x0000000004000934        0x1 C:\Users\nxf40467\AppData\Local\Temp\ccjQdhik.ltrans0.ltrans.o
                0x0000000004000934                bMutexTaken.269540
 *fill*         0x0000000004000935        0x3 00
 .bss           0x0000000004000938      0xcb0 C:\Users\nxf40467\AppData\Local\Temp\ccjQdhik.ltrans1.ltrans.o
                0x0000000004000938                u8MaxNpdu.114791
                0x0000000004000939                u8Count.114790
                0x000000000400093c                s_psNPduPoolEnd.114788
                0x0000000004000940                s_psNPduPoolStart.114787
                0x0000000004000944                s_psFreeListHead.114789
                0x0000000004000948                s_asAPduPool.114887
 .bss           0x00000000040015e8       0x20 C:\Users\nxf40467\AppData\Local\Temp\ccjQdhik.ltrans2.ltrans.o
                0x00000000040015e8                prIntHandler.268303
                0x00000000040015ec                psTimerServerList
 .bss           0x0000000004001608       0x38 C:\Users\nxf40467\AppData\Local\Temp\ccjQdhik.ltrans3.ltrans.o
 .bss           0x0000000004001640       0x14 C:\Users\nxf40467\AppData\Local\Temp\ccjQdhik.ltrans4.ltrans.o
                0x0000000004001640                bAHI_ExtendedTemperatureOperation
                0x0000000004001644                g_tSpiConfiguration
 .bss           0x0000000004001654       0x18 C:\Users\nxf40467\AppData\Local\Temp\ccjQdhik.ltrans5.ltrans.o
                0x0000000004001654                sMiniMacIntStore.113834
 *fill*         0x000000000400166c        0x4 00
 .bss           0x0000000004001670       0x50 C:\Users\nxf40467\AppData\Local\Temp\ccjQdhik.ltrans6.ltrans.o
                0x0000000004001670                a16NwkPdmRecordSizes
                0x000000000400167c                g_u8LegacyBeaconPayloadLen
                0x000000000400167d                au8BeaconPayload.249711
                0x000000000400168c                apvAplPdmRecordsAddress
                0x00000000040016a0                au16AplPdmRecordsSize
 .bss           0x00000000040016c0       0x5c C:\Users\nxf40467\AppData\Local\Temp\ccjQdhik.ltrans7.ltrans.o
                0x00000000040016c0                sAfFlashInfoSetLocal
                0x00000000040016c8                bResetScanTimer.267045
 .bss           0x000000000400171c       0x34 C:\Users\nxf40467\AppData\Local\Temp\ccjQdhik.ltrans8.ltrans.o
 .bss           0x0000000004001750        0x8 C:\Users\nxf40467\AppData\Local\Temp\ccjQdhik.ltrans9.ltrans.o
                0x0000000004001750                g_pfTimerExpiryCallback.245615
 .bss           0x0000000004001758        0x1 C:\Users\nxf40467\AppData\Local\Temp\ccjQdhik.ltrans10.ltrans.o
 *fill*         0x0000000004001759        0x3 00
 .bss           0x000000000400175c       0x44 C:\Users\nxf40467\AppData\Local\Temp\ccjQdhik.ltrans11.ltrans.o
                0x000000000400175c                sScanAttemptTimer
                0x0000000004001778                bSecondScan.258336
                0x0000000004001779                au8ChanCnt
                0x0000000004001794                g_bMacEnhancedMode
                0x0000000004001798                sThisDeviceMacAddr
 .bss           0x00000000040017a0       0x30 C:\Users\nxf40467\AppData\Local\Temp\ccjQdhik.ltrans12.ltrans.o
                0x00000000040017a0                pfAliasAddressPresent
                0x00000000040017a4                pfOptionsFilterCallback
 .bss           0x00000000040017d0     0x1fc0 C:\Users\nxf40467\AppData\Local\Temp\ccjQdhik.ltrans13.ltrans.o
                0x00000000040017d0                s_sDefaultServerContext.3061
                0x00000000040017d4                s_sParentAnnceServerContext.2973
                0x00000000040017dc                s_sMgmtRtgServerContext.2974
                0x00000000040017e0                s_sPermitJoiningServerContext.2975
                0x00000000040017e4                s_sMgmtBindServerContext.2976
                0x00000000040017e8                s_sBindRequestServerContext.2977
                0x0000000004001828                s_sBindUnbindServerContext.2979
                0x0000000004001858                s_sMgmtNWKUpdateServerContext.2980
                0x00000000040018b0                s_sMgmtLeaveServerContext.3060
                0x00000000040018d8                s_sMgmtLqiServerContext.3059
                0x00000000040018dc                s_sSimpleDescServerContext.3058
                0x00000000040018e0                s_sMatchDescServerContext.3057
                0x00000000040018e4                s_sPowerDescServerContext.3056
                0x00000000040018e8                s_sNodeDescServerContext.3055
                0x00000000040018ec                s_sIeeeAddrServerContext.3054
                0x00000000040018f0                s_sNwkAddrServerContext.3053
                0x00000000040018f4                s_sActiveEpServerContext.3052
                0x00000000040018f8                s_sZdoClientContext.3050
                0x00000000040018f8                s_sDeviceAnnceServerContext.3051
                0x0000000004001900                APP_msgBdbEvents
                0x0000000004001918                u8GPTimerTick
                0x0000000004001919                u8TimerPowerOn
                0x000000000400191a                u8TimerTick
                0x000000000400191b                u8TimerRadioRecal
                0x000000000400191c                u8TimerButtonScan
                0x000000000400191d                u8SetGreenLEDLevel
                0x000000000400191e                u8SetBlueLEDLevel
                0x000000000400191f                u8SetRedLEDLevel
                0x0000000004001920                bBulbOn.12755
                0x0000000004001924                psNextWake.114543
                0x0000000004001928                s_bWakeTimerActive.114544
                0x0000000004001929                s_ePowerMode.114545
                0x000000000400192a                gu16NumberOfSegments.269832
                0x000000000400192c                psPDM_Common
                0x0000000004001930                pfExtendedStatusCallBack.246132
                0x0000000004001934                eInitState
                0x0000000004001938                uMacDcfmInd
                0x0000000004001964                sZpsIntStore
                0x0000000004001968                s_u16ActivityCounter
                0x000000000400196c                ZTIMER_sCommon.12947
                0x0000000004001974                u8GPZCLTimerEvent
                0x0000000004001978                APP_msgGPZCLTimerEvents
                0x0000000004001990                sBDB
                0x00000000040019e8                sZllState
                0x0000000004001a00                APP_msgAppEvents
 .bss           0x0000000004003790      0x1a0 C:\Users\nxf40467\AppData\Local\Temp\ccjQdhik.ltrans14.ltrans.o
                0x0000000004003790                psFreeMsgListHead
                0x0000000004003794                pu8ApsSeq
                0x0000000004003798                state
                0x00000000040037a8                RoundKey
                0x0000000004003898                u8TimerBdbTl
                0x00000000040038a0                sDstAddr
 .bss           0x0000000004003930      0x830 C:\Users\nxf40467\AppData\Local\Temp\ccjQdhik.ltrans15.ltrans.o
                0x0000000004003930                pFuncGpSecReceived
                0x0000000004003934                sPowerOnCounts.10078
                0x0000000004003938                sScenesCustomData.4758
                0x0000000004003a7c                s_u32x.235541
                0x0000000004003a80                pfZGPSupported
                0x0000000004003a84                pvRxStore
                0x0000000004003a88                pvTxStore
                0x0000000004003a8c                pasTxFrame
                0x0000000004003a90                g_pvAplHandle
                0x0000000004003a94                s_sDcfmIndMgr.113853
                0x0000000004003a9c                prAppMlmeGetBuffer
                0x0000000004003aa0                prAppMlmeCallback
                0x0000000004003aa4                s_pvAplHandle.113105
                0x0000000004003aa8                s_prMcpsCallBack.113103
                0x0000000004003aac                s_prMlmeCallBack.113104
                0x0000000004003ab0                u8MiniMac_RunTimeOptions
                0x0000000004003ab4                sZCLAttribs
                0x0000000004003ac0                s_groupTablePdmStorage.3171
 .bss           0x0000000004004160      0x228 C:\Users\nxf40467\AppData\Local\Temp\ccjQdhik.ltrans17.ltrans.o
                0x0000000004004160                au32TimerCounter
                0x0000000004004180                aprTimerCallback
                0x00000000040041a0                sMiniMacInternal
 .bss           0x0000000004004388       0x60 C:\Users\nxf40467\AppData\Local\Temp\ccjQdhik.ltrans18.ltrans.o
 .bss           0x00000000040043e8        0x8 C:\Users\nxf40467\AppData\Local\Temp\ccjQdhik.ltrans19.ltrans.o
                0x00000000040043e8                u32BackUpApsChannelMask
                0x00000000040043ec                u8RejoinCycles
                0x00000000040043ed                eFR_State
                0x00000000040043ee                u8TimerBdbNs
                0x00000000040043ef                eNS_State
 .bss           0x00000000040043f0       0x30 C:\Users\nxf40467\AppData\Local\Temp\ccjQdhik.ltrans20.ltrans.o
                0x00000000040043f0                s_prExpireFn.270350
                0x00000000040043f4                g_psServerContext
                0x00000000040043f8                bDefaultServerIgnoreHandleMgmtUpdate
 .bss           0x0000000004004420     0x1140 C:\Users\nxf40467\AppData\Local\Temp\ccjQdhik.ltrans21.ltrans.o
                0x0000000004004420                pfAllowInterPanToEp
                0x0000000004004424                gZpsSetByProfile.119289
                0x0000000004004428                sOTA_PersistedData
                0x00000000040044d8                bWaitUgradeTime.9801
                0x00000000040044dc                u32TimeOut.9800
                0x00000000040044e0                eOTA_State.9802
                0x00000000040044e4                u32OTARetry.9812
                0x00000000040044e8                sGPDeviceInfo
                0x0000000004004a88                sGP_PDM_Data
                0x0000000004004b18                asSavedReports.10022
                0x0000000004004bf8                sLight
                0x0000000004005540                sNvmDefsStruct
                0x0000000004005558                psZCL_Common
 .bss           0x0000000004005560       0xd8 C:\Users\nxf40467\AppData\Local\Temp\ccjQdhik.ltrans22.ltrans.o
                0x0000000004005560                psActiveMsgListHead
                0x0000000004005564                sMiniMacPib
                0x0000000004005600                sRecoverDevice
                0x0000000004005630                bZpsMyLastJoinWasRejoin.130257
 .bss           0x0000000004005638        0x4 C:\Users\nxf40467\AppData\Local\Temp\ccjQdhik.ltrans23.ltrans.o
                0x0000000004005638                zps_psNwk
 .bss           0x000000000400563c       0x18 C:\Users\nxf40467\AppData\Local\Temp\ccjQdhik.ltrans24.ltrans.o
                0x000000000400563c                bSaved
                0x0000000004005640                sIdEffect
                0x000000000400564c                bIntEnableFlag.268764
                0x000000000400564d                u8StateChangeTick
 *fill*         0x0000000004005654        0x4 00
 .bss           0x0000000004005658       0x10 C:\Users\nxf40467\AppData\Local\Temp\ccjQdhik.ltrans25.ltrans.o
 .bss           0x0000000004005668      0x4f8 C:\Users\nxf40467\AppData\Local\Temp\ccjQdhik.ltrans27.ltrans.o
 .bss           0x0000000004005b60        0x1 C:\Users\nxf40467\AppData\Local\Temp\ccjQdhik.ltrans28.ltrans.o
                0x0000000004005b60                bFlag_SaveScenesNVM
 *fill*         0x0000000004005b61        0x3 00
 .bss           0x0000000004005b64        0x4 C:\Users\nxf40467\AppData\Local\Temp\ccjQdhik.ltrans29.ltrans.o
                0x0000000004005b64                pfnDataReqCallback
 .bss           0x0000000004005b68       0x48 C:\Users\nxf40467\AppData\Local\Temp\ccjQdhik.ltrans30.ltrans.o
                0x0000000004005b68                sMiniMacPhyPib
                0x0000000004005b6c                sCommission
                0x0000000004005b7c                aeFBState.112326
                0x0000000004005b80                psBeaconFilter
                0x0000000004005b84                psNwkDescriptors.130330
                0x0000000004005b88                g_u8Networks.130329
                0x0000000004005b89                u8TimerBdbRejoin
 .bss           0x0000000004005bb0       0x2c C:\Users\nxf40467\AppData\Local\Temp\ccjQdhik.ltrans31.ltrans.o
                0x0000000004005bb0                pwrm_CPUContext
                0x0000000004005bd4                s_psVsMcpsDcfmInd.139744
                0x0000000004005bd8                s_psMacDcfmInd.139743
 .bss.dontinitinboot
                0x0000000004005bdc       0x40 ../../../../sdk/JN-SW-4170/Components/Library\libBoot_JN516x.a(ExceptionHandler.o)
                0x0000000004005bdc                isr_handlers
 *(.bss.*)
 *(.scommon*)
 *(.scommon.*)
 *(COMMON)
                0x0000000004005c1c                . = ALIGN (0x4)
                0x0000000004005c1c                _bss_end = ABSOLUTE (.)

.heap           0x0000000004005c1c      0x7d0 load address 0x00000000000c1290
                0x0000000004005c1c                _heap_start = ABSOLUTE (.)
                0x00000000040063ec                . = (. + __minimum_heap_size)
 *fill*         0x0000000004005c1c      0x7d0 00

.stack          0x000000000400669c     0x1964 load address 0x00000000000c1d10
                0x000000000400669c                _heap_end = ABSOLUTE (.)
                0x000000000400669c                _stack_low_water_mark = ABSOLUTE (.)
                0x0000000004008000                . = (. + __stack_size)
 *fill*         0x000000000400669c     0x1964 00

.test           0x00000000000bbf98        0x1
                0x00000000000bbf98        0x1 BYTE 0xff
                0x00000000000bb6c0                _flash_data_start = LOADADDR (.data)
                0x00000000000008d8                _ram_data_len = (((_ram_data_end - _ram_data_start) + 0x3) & 0xfffffffffffffffc)
                0x00000000000052f8                _bss_len = (((_bss_end - _bss_start) + 0x3) & 0xfffffffffffffffc)
                0x000000000003bf98                _image_len = ((((_flash_end - _flash_start) + _ram_data_len) + 0x3) & 0xfffffffffffffffc)
                0x0000000004008000                _ram_top = (ABSOLUTE (ORIGIN (ram)) + 0x7fb4)
                0x0000000004008000                ram_top = (ABSOLUTE (ORIGIN (ram)) + 0x7fb4)
                0x0000000001001580                _app_ram_start = 0x1001580
                0x000000000400004c                PROVIDE (_heap_location, u32HeapStart)
                0x000000000400004c                PROVIDE (heap_location, u32HeapStart)
OUTPUT(../../ExtendedColorLight/Build/ExtendedColorLight_GpCombo_OtaEnc_JN5169_DR1175.elf elf32-ba)

.comment        0x0000000000000000       0x11
 .comment       0x0000000000000000       0x12 C:\Users\nxf40467\AppData\Local\Temp\ccjQdhik.ltrans0.ltrans.o
 .comment       0x0000000000000000       0x12 C:\Users\nxf40467\AppData\Local\Temp\ccjQdhik.ltrans1.ltrans.o
 .comment       0x0000000000000000       0x12 C:\Users\nxf40467\AppData\Local\Temp\ccjQdhik.ltrans2.ltrans.o
 .comment       0x0000000000000000       0x12 C:\Users\nxf40467\AppData\Local\Temp\ccjQdhik.ltrans3.ltrans.o
 .comment       0x0000000000000000       0x12 C:\Users\nxf40467\AppData\Local\Temp\ccjQdhik.ltrans4.ltrans.o
 .comment       0x0000000000000000       0x12 C:\Users\nxf40467\AppData\Local\Temp\ccjQdhik.ltrans5.ltrans.o
 .comment       0x0000000000000000       0x12 C:\Users\nxf40467\AppData\Local\Temp\ccjQdhik.ltrans6.ltrans.o
 .comment       0x0000000000000000       0x12 C:\Users\nxf40467\AppData\Local\Temp\ccjQdhik.ltrans7.ltrans.o
 .comment       0x0000000000000000       0x12 C:\Users\nxf40467\AppData\Local\Temp\ccjQdhik.ltrans8.ltrans.o
 .comment       0x0000000000000000       0x12 C:\Users\nxf40467\AppData\Local\Temp\ccjQdhik.ltrans9.ltrans.o
 .comment       0x0000000000000000       0x12 C:\Users\nxf40467\AppData\Local\Temp\ccjQdhik.ltrans10.ltrans.o
 .comment       0x0000000000000000       0x12 C:\Users\nxf40467\AppData\Local\Temp\ccjQdhik.ltrans11.ltrans.o
 .comment       0x0000000000000000       0x12 C:\Users\nxf40467\AppData\Local\Temp\ccjQdhik.ltrans12.ltrans.o
 .comment       0x0000000000000000       0x12 C:\Users\nxf40467\AppData\Local\Temp\ccjQdhik.ltrans13.ltrans.o
 .comment       0x0000000000000000       0x12 C:\Users\nxf40467\AppData\Local\Temp\ccjQdhik.ltrans14.ltrans.o
 .comment       0x0000000000000000       0x12 C:\Users\nxf40467\AppData\Local\Temp\ccjQdhik.ltrans15.ltrans.o
 .comment       0x0000000000000000       0x12 C:\Users\nxf40467\AppData\Local\Temp\ccjQdhik.ltrans16.ltrans.o
 .comment       0x0000000000000000       0x12 C:\Users\nxf40467\AppData\Local\Temp\ccjQdhik.ltrans17.ltrans.o
 .comment       0x0000000000000000       0x12 C:\Users\nxf40467\AppData\Local\Temp\ccjQdhik.ltrans18.ltrans.o
 .comment       0x0000000000000000       0x12 C:\Users\nxf40467\AppData\Local\Temp\ccjQdhik.ltrans19.ltrans.o
 .comment       0x0000000000000000       0x12 C:\Users\nxf40467\AppData\Local\Temp\ccjQdhik.ltrans20.ltrans.o
 .comment       0x0000000000000000       0x12 C:\Users\nxf40467\AppData\Local\Temp\ccjQdhik.ltrans21.ltrans.o
 .comment       0x0000000000000000       0x12 C:\Users\nxf40467\AppData\Local\Temp\ccjQdhik.ltrans22.ltrans.o
 .comment       0x0000000000000000       0x12 C:\Users\nxf40467\AppData\Local\Temp\ccjQdhik.ltrans23.ltrans.o
 .comment       0x0000000000000000       0x12 C:\Users\nxf40467\AppData\Local\Temp\ccjQdhik.ltrans24.ltrans.o
 .comment       0x0000000000000000       0x12 C:\Users\nxf40467\AppData\Local\Temp\ccjQdhik.ltrans25.ltrans.o
 .comment       0x0000000000000000       0x12 C:\Users\nxf40467\AppData\Local\Temp\ccjQdhik.ltrans26.ltrans.o
 .comment       0x0000000000000000       0x12 C:\Users\nxf40467\AppData\Local\Temp\ccjQdhik.ltrans27.ltrans.o
 .comment       0x0000000000000000       0x12 C:\Users\nxf40467\AppData\Local\Temp\ccjQdhik.ltrans28.ltrans.o
 .comment       0x0000000000000000       0x12 C:\Users\nxf40467\AppData\Local\Temp\ccjQdhik.ltrans29.ltrans.o
 .comment       0x0000000000000000       0x12 C:\Users\nxf40467\AppData\Local\Temp\ccjQdhik.ltrans30.ltrans.o
 .comment       0x0000000000000000       0x12 C:\Users\nxf40467\AppData\Local\Temp\ccjQdhik.ltrans31.ltrans.o
 .comment       0x0000000000000000       0x12 c:/nxp/bstudio_nxp/sdk/tools/ba-elf-ba2-r36379/bin/../lib/gcc/ba-elf/4.7.4/../../../../ba-elf/lib/mcpu_jn51xx_sizeopt\libc.a(lib_a-memcmp.o)
 .comment       0x0000000000000000       0x12 c:/nxp/bstudio_nxp/sdk/tools/ba-elf-ba2-r36379/bin/../lib/gcc/ba-elf/4.7.4/../../../../ba-elf/lib/mcpu_jn51xx_sizeopt\libc.a(lib_a-memcpy.o)
 .comment       0x0000000000000000       0x12 c:/nxp/bstudio_nxp/sdk/tools/ba-elf-ba2-r36379/bin/../lib/gcc/ba-elf/4.7.4/../../../../ba-elf/lib/mcpu_jn51xx_sizeopt\libc.a(lib_a-memset.o)
 .comment       0x0000000000000000       0x12 c:/nxp/bstudio_nxp/sdk/tools/ba-elf-ba2-r36379/bin/../lib/gcc/ba-elf/4.7.4/../../../../ba-elf/lib/mcpu_jn51xx_sizeopt\libc.a(lib_a-strlen.o)
 .comment       0x0000000000000000       0x12 c:/nxp/bstudio_nxp/sdk/tools/ba-elf-ba2-r36379/bin/../lib/gcc/ba-elf/4.7.4/../../../../ba-elf/lib/mcpu_jn51xx_sizeopt\libc.a(lib_a-strncpy.o)
 .comment       0x0000000000000000       0x12 c:/nxp/bstudio_nxp/sdk/tools/ba-elf-ba2-r36379/bin/../lib/gcc/ba-elf/4.7.4/mcpu_jn51xx_sizeopt\libgcc.a(_fixunssfsi.o)
 .comment       0x0000000000000000       0x12 c:/nxp/bstudio_nxp/sdk/tools/ba-elf-ba2-r36379/bin/../lib/gcc/ba-elf/4.7.4/mcpu_jn51xx_sizeopt\libgcc.a(_fixunsdfsi.o)
 .comment       0x0000000000000000       0x12 c:/nxp/bstudio_nxp/sdk/tools/ba-elf-ba2-r36379/bin/../lib/gcc/ba-elf/4.7.4/mcpu_jn51xx_sizeopt\libgcc.a(_divdi3.o)
 .comment       0x0000000000000000       0x12 c:/nxp/bstudio_nxp/sdk/tools/ba-elf-ba2-r36379/bin/../lib/gcc/ba-elf/4.7.4/mcpu_jn51xx_sizeopt\libgcc.a(_udivdi3.o)
 .comment       0x0000000000000000       0x12 c:/nxp/bstudio_nxp/sdk/tools/ba-elf-ba2-r36379/bin/../lib/gcc/ba-elf/4.7.4/mcpu_jn51xx_sizeopt\libgcc.a(addsf3.o)
 .comment       0x0000000000000000       0x12 c:/nxp/bstudio_nxp/sdk/tools/ba-elf-ba2-r36379/bin/../lib/gcc/ba-elf/4.7.4/mcpu_jn51xx_sizeopt\libgcc.a(divsf3.o)
 .comment       0x0000000000000000       0x12 c:/nxp/bstudio_nxp/sdk/tools/ba-elf-ba2-r36379/bin/../lib/gcc/ba-elf/4.7.4/mcpu_jn51xx_sizeopt\libgcc.a(eqsf2.o)
 .comment       0x0000000000000000       0x12 c:/nxp/bstudio_nxp/sdk/tools/ba-elf-ba2-r36379/bin/../lib/gcc/ba-elf/4.7.4/mcpu_jn51xx_sizeopt\libgcc.a(gesf2.o)
 .comment       0x0000000000000000       0x12 c:/nxp/bstudio_nxp/sdk/tools/ba-elf-ba2-r36379/bin/../lib/gcc/ba-elf/4.7.4/mcpu_jn51xx_sizeopt\libgcc.a(lesf2.o)
 .comment       0x0000000000000000       0x12 c:/nxp/bstudio_nxp/sdk/tools/ba-elf-ba2-r36379/bin/../lib/gcc/ba-elf/4.7.4/mcpu_jn51xx_sizeopt\libgcc.a(mulsf3.o)
 .comment       0x0000000000000000       0x12 c:/nxp/bstudio_nxp/sdk/tools/ba-elf-ba2-r36379/bin/../lib/gcc/ba-elf/4.7.4/mcpu_jn51xx_sizeopt\libgcc.a(subsf3.o)
 .comment       0x0000000000000000       0x12 c:/nxp/bstudio_nxp/sdk/tools/ba-elf-ba2-r36379/bin/../lib/gcc/ba-elf/4.7.4/mcpu_jn51xx_sizeopt\libgcc.a(fixsfsi.o)
 .comment       0x0000000000000000       0x12 c:/nxp/bstudio_nxp/sdk/tools/ba-elf-ba2-r36379/bin/../lib/gcc/ba-elf/4.7.4/mcpu_jn51xx_sizeopt\libgcc.a(floatunsisf.o)
 .comment       0x0000000000000000       0x12 c:/nxp/bstudio_nxp/sdk/tools/ba-elf-ba2-r36379/bin/../lib/gcc/ba-elf/4.7.4/mcpu_jn51xx_sizeopt\libgcc.a(adddf3.o)
 .comment       0x0000000000000000       0x12 c:/nxp/bstudio_nxp/sdk/tools/ba-elf-ba2-r36379/bin/../lib/gcc/ba-elf/4.7.4/mcpu_jn51xx_sizeopt\libgcc.a(divdf3.o)
 .comment       0x0000000000000000       0x12 c:/nxp/bstudio_nxp/sdk/tools/ba-elf-ba2-r36379/bin/../lib/gcc/ba-elf/4.7.4/mcpu_jn51xx_sizeopt\libgcc.a(gedf2.o)
 .comment       0x0000000000000000       0x12 c:/nxp/bstudio_nxp/sdk/tools/ba-elf-ba2-r36379/bin/../lib/gcc/ba-elf/4.7.4/mcpu_jn51xx_sizeopt\libgcc.a(muldf3.o)
 .comment       0x0000000000000000       0x12 c:/nxp/bstudio_nxp/sdk/tools/ba-elf-ba2-r36379/bin/../lib/gcc/ba-elf/4.7.4/mcpu_jn51xx_sizeopt\libgcc.a(subdf3.o)
 .comment       0x0000000000000000       0x12 c:/nxp/bstudio_nxp/sdk/tools/ba-elf-ba2-r36379/bin/../lib/gcc/ba-elf/4.7.4/mcpu_jn51xx_sizeopt\libgcc.a(fixdfsi.o)
 .comment       0x0000000000000000       0x12 c:/nxp/bstudio_nxp/sdk/tools/ba-elf-ba2-r36379/bin/../lib/gcc/ba-elf/4.7.4/mcpu_jn51xx_sizeopt\libgcc.a(extendsfdf2.o)
 .comment       0x0000000000000000       0x12 c:/nxp/bstudio_nxp/sdk/tools/ba-elf-ba2-r36379/bin/../lib/gcc/ba-elf/4.7.4/mcpu_jn51xx_sizeopt\libgcc.a(truncdfsf2.o)
 .comment       0x0000000000000000       0x11 ../../../../sdk/JN-SW-4170/Components/Library\libMicroSpecific_JN516x.a(MicroSyscall_ba.o)
                                         0x12 (size before relaxing)
 .comment       0x0000000000000000       0x12 c:/nxp/bstudio_nxp/sdk/tools/ba-elf-ba2-r36379/bin/../lib/gcc/ba-elf/4.7.4/../../../../ba-elf/lib/mcpu_jn51xx_sizeopt\libm.a(lib_a-s_floor.o)

.debug_info     0x0000000000000000     0x49a6
 .debug_info    0x0000000000000000       0xf3 c:/nxp/bstudio_nxp/sdk/tools/ba-elf-ba2-r36379/bin/../lib/gcc/ba-elf/4.7.4/../../../../ba-elf/lib/mcpu_jn51xx_sizeopt\libc.a(lib_a-memcmp.o)
 .debug_info    0x00000000000000f3      0x106 c:/nxp/bstudio_nxp/sdk/tools/ba-elf-ba2-r36379/bin/../lib/gcc/ba-elf/4.7.4/../../../../ba-elf/lib/mcpu_jn51xx_sizeopt\libc.a(lib_a-memcpy.o)
 .debug_info    0x00000000000001f9       0xd7 c:/nxp/bstudio_nxp/sdk/tools/ba-elf-ba2-r36379/bin/../lib/gcc/ba-elf/4.7.4/../../../../ba-elf/lib/mcpu_jn51xx_sizeopt\libc.a(lib_a-memset.o)
 .debug_info    0x00000000000002d0       0xc8 c:/nxp/bstudio_nxp/sdk/tools/ba-elf-ba2-r36379/bin/../lib/gcc/ba-elf/4.7.4/../../../../ba-elf/lib/mcpu_jn51xx_sizeopt\libc.a(lib_a-strlen.o)
 .debug_info    0x0000000000000398       0xf9 c:/nxp/bstudio_nxp/sdk/tools/ba-elf-ba2-r36379/bin/../lib/gcc/ba-elf/4.7.4/../../../../ba-elf/lib/mcpu_jn51xx_sizeopt\libc.a(lib_a-strncpy.o)
 .debug_info    0x0000000000000491       0xb4 c:/nxp/bstudio_nxp/sdk/tools/ba-elf-ba2-r36379/bin/../lib/gcc/ba-elf/4.7.4/mcpu_jn51xx_sizeopt\libgcc.a(__udivsi3.o)
 .debug_info    0x0000000000000545       0xb4 c:/nxp/bstudio_nxp/sdk/tools/ba-elf-ba2-r36379/bin/../lib/gcc/ba-elf/4.7.4/mcpu_jn51xx_sizeopt\libgcc.a(__divsi3.o)
 .debug_info    0x00000000000005f9       0xb4 c:/nxp/bstudio_nxp/sdk/tools/ba-elf-ba2-r36379/bin/../lib/gcc/ba-elf/4.7.4/mcpu_jn51xx_sizeopt\libgcc.a(__umodsi3.o)
 .debug_info    0x00000000000006ad       0xb4 c:/nxp/bstudio_nxp/sdk/tools/ba-elf-ba2-r36379/bin/../lib/gcc/ba-elf/4.7.4/mcpu_jn51xx_sizeopt\libgcc.a(__modsi3.o)
 .debug_info    0x0000000000000761       0xd3 c:/nxp/bstudio_nxp/sdk/tools/ba-elf-ba2-r36379/bin/../lib/gcc/ba-elf/4.7.4/mcpu_jn51xx_sizeopt\libgcc.a(_fixunssfsi.o)
 .debug_info    0x0000000000000834       0xd3 c:/nxp/bstudio_nxp/sdk/tools/ba-elf-ba2-r36379/bin/../lib/gcc/ba-elf/4.7.4/mcpu_jn51xx_sizeopt\libgcc.a(_fixunsdfsi.o)
 .debug_info    0x0000000000000907      0x68a c:/nxp/bstudio_nxp/sdk/tools/ba-elf-ba2-r36379/bin/../lib/gcc/ba-elf/4.7.4/mcpu_jn51xx_sizeopt\libgcc.a(_divdi3.o)
 .debug_info    0x0000000000000f91      0x648 c:/nxp/bstudio_nxp/sdk/tools/ba-elf-ba2-r36379/bin/../lib/gcc/ba-elf/4.7.4/mcpu_jn51xx_sizeopt\libgcc.a(_udivdi3.o)
 .debug_info    0x00000000000015d9      0x2b5 c:/nxp/bstudio_nxp/sdk/tools/ba-elf-ba2-r36379/bin/../lib/gcc/ba-elf/4.7.4/mcpu_jn51xx_sizeopt\libgcc.a(addsf3.o)
 .debug_info    0x000000000000188e      0x2b1 c:/nxp/bstudio_nxp/sdk/tools/ba-elf-ba2-r36379/bin/../lib/gcc/ba-elf/4.7.4/mcpu_jn51xx_sizeopt\libgcc.a(divsf3.o)
 .debug_info    0x0000000000001b3f      0x1c6 c:/nxp/bstudio_nxp/sdk/tools/ba-elf-ba2-r36379/bin/../lib/gcc/ba-elf/4.7.4/mcpu_jn51xx_sizeopt\libgcc.a(eqsf2.o)
 .debug_info    0x0000000000001d05      0x1e9 c:/nxp/bstudio_nxp/sdk/tools/ba-elf-ba2-r36379/bin/../lib/gcc/ba-elf/4.7.4/mcpu_jn51xx_sizeopt\libgcc.a(gesf2.o)
 .debug_info    0x0000000000001eee      0x1ec c:/nxp/bstudio_nxp/sdk/tools/ba-elf-ba2-r36379/bin/../lib/gcc/ba-elf/4.7.4/mcpu_jn51xx_sizeopt\libgcc.a(lesf2.o)
 .debug_info    0x00000000000020da      0x302 c:/nxp/bstudio_nxp/sdk/tools/ba-elf-ba2-r36379/bin/../lib/gcc/ba-elf/4.7.4/mcpu_jn51xx_sizeopt\libgcc.a(mulsf3.o)
 .debug_info    0x00000000000023dc      0x2b5 c:/nxp/bstudio_nxp/sdk/tools/ba-elf-ba2-r36379/bin/../lib/gcc/ba-elf/4.7.4/mcpu_jn51xx_sizeopt\libgcc.a(subsf3.o)
 .debug_info    0x0000000000002691      0x19d c:/nxp/bstudio_nxp/sdk/tools/ba-elf-ba2-r36379/bin/../lib/gcc/ba-elf/4.7.4/mcpu_jn51xx_sizeopt\libgcc.a(fixsfsi.o)
 .debug_info    0x000000000000282e      0x1af c:/nxp/bstudio_nxp/sdk/tools/ba-elf-ba2-r36379/bin/../lib/gcc/ba-elf/4.7.4/mcpu_jn51xx_sizeopt\libgcc.a(floatunsisf.o)
 .debug_info    0x00000000000029dd      0x4b2 c:/nxp/bstudio_nxp/sdk/tools/ba-elf-ba2-r36379/bin/../lib/gcc/ba-elf/4.7.4/mcpu_jn51xx_sizeopt\libgcc.a(adddf3.o)
 .debug_info    0x0000000000002e8f      0x5c5 c:/nxp/bstudio_nxp/sdk/tools/ba-elf-ba2-r36379/bin/../lib/gcc/ba-elf/4.7.4/mcpu_jn51xx_sizeopt\libgcc.a(divdf3.o)
 .debug_info    0x0000000000003454      0x20b c:/nxp/bstudio_nxp/sdk/tools/ba-elf-ba2-r36379/bin/../lib/gcc/ba-elf/4.7.4/mcpu_jn51xx_sizeopt\libgcc.a(gedf2.o)
 .debug_info    0x000000000000365f      0x5c7 c:/nxp/bstudio_nxp/sdk/tools/ba-elf-ba2-r36379/bin/../lib/gcc/ba-elf/4.7.4/mcpu_jn51xx_sizeopt\libgcc.a(muldf3.o)
 .debug_info    0x0000000000003c26      0x4b2 c:/nxp/bstudio_nxp/sdk/tools/ba-elf-ba2-r36379/bin/../lib/gcc/ba-elf/4.7.4/mcpu_jn51xx_sizeopt\libgcc.a(subdf3.o)
 .debug_info    0x00000000000040d8      0x1b7 c:/nxp/bstudio_nxp/sdk/tools/ba-elf-ba2-r36379/bin/../lib/gcc/ba-elf/4.7.4/mcpu_jn51xx_sizeopt\libgcc.a(fixdfsi.o)
 .debug_info    0x000000000000428f      0x262 c:/nxp/bstudio_nxp/sdk/tools/ba-elf-ba2-r36379/bin/../lib/gcc/ba-elf/4.7.4/mcpu_jn51xx_sizeopt\libgcc.a(extendsfdf2.o)
 .debug_info    0x00000000000044f1      0x246 c:/nxp/bstudio_nxp/sdk/tools/ba-elf-ba2-r36379/bin/../lib/gcc/ba-elf/4.7.4/mcpu_jn51xx_sizeopt\libgcc.a(truncdfsf2.o)
 .debug_info    0x0000000000004737       0xbe ../../../../sdk/JN-SW-4170/Components/Library\libBoot_JN516x.a(ExceptionHandler.o)
 .debug_info    0x00000000000047f5      0x1b1 c:/nxp/bstudio_nxp/sdk/tools/ba-elf-ba2-r36379/bin/../lib/gcc/ba-elf/4.7.4/../../../../ba-elf/lib/mcpu_jn51xx_sizeopt\libm.a(lib_a-s_floor.o)

.debug_abbrev   0x0000000000000000     0x1b8e
 .debug_abbrev  0x0000000000000000       0x8e c:/nxp/bstudio_nxp/sdk/tools/ba-elf-ba2-r36379/bin/../lib/gcc/ba-elf/4.7.4/../../../../ba-elf/lib/mcpu_jn51xx_sizeopt\libc.a(lib_a-memcmp.o)
 .debug_abbrev  0x000000000000008e       0xa4 c:/nxp/bstudio_nxp/sdk/tools/ba-elf-ba2-r36379/bin/../lib/gcc/ba-elf/4.7.4/../../../../ba-elf/lib/mcpu_jn51xx_sizeopt\libc.a(lib_a-memcpy.o)
 .debug_abbrev  0x0000000000000132       0x8e c:/nxp/bstudio_nxp/sdk/tools/ba-elf-ba2-r36379/bin/../lib/gcc/ba-elf/4.7.4/../../../../ba-elf/lib/mcpu_jn51xx_sizeopt\libc.a(lib_a-memset.o)
 .debug_abbrev  0x00000000000001c0       0x7f c:/nxp/bstudio_nxp/sdk/tools/ba-elf-ba2-r36379/bin/../lib/gcc/ba-elf/4.7.4/../../../../ba-elf/lib/mcpu_jn51xx_sizeopt\libc.a(lib_a-strlen.o)
 .debug_abbrev  0x000000000000023f       0x8e c:/nxp/bstudio_nxp/sdk/tools/ba-elf-ba2-r36379/bin/../lib/gcc/ba-elf/4.7.4/../../../../ba-elf/lib/mcpu_jn51xx_sizeopt\libc.a(lib_a-strncpy.o)
 .debug_abbrev  0x00000000000002cd       0x14 c:/nxp/bstudio_nxp/sdk/tools/ba-elf-ba2-r36379/bin/../lib/gcc/ba-elf/4.7.4/mcpu_jn51xx_sizeopt\libgcc.a(__udivsi3.o)
 .debug_abbrev  0x00000000000002e1       0x14 c:/nxp/bstudio_nxp/sdk/tools/ba-elf-ba2-r36379/bin/../lib/gcc/ba-elf/4.7.4/mcpu_jn51xx_sizeopt\libgcc.a(__divsi3.o)
 .debug_abbrev  0x00000000000002f5       0x14 c:/nxp/bstudio_nxp/sdk/tools/ba-elf-ba2-r36379/bin/../lib/gcc/ba-elf/4.7.4/mcpu_jn51xx_sizeopt\libgcc.a(__umodsi3.o)
 .debug_abbrev  0x0000000000000309       0x14 c:/nxp/bstudio_nxp/sdk/tools/ba-elf-ba2-r36379/bin/../lib/gcc/ba-elf/4.7.4/mcpu_jn51xx_sizeopt\libgcc.a(__modsi3.o)
 .debug_abbrev  0x000000000000031d       0x60 c:/nxp/bstudio_nxp/sdk/tools/ba-elf-ba2-r36379/bin/../lib/gcc/ba-elf/4.7.4/mcpu_jn51xx_sizeopt\libgcc.a(_fixunssfsi.o)
 .debug_abbrev  0x000000000000037d       0x60 c:/nxp/bstudio_nxp/sdk/tools/ba-elf-ba2-r36379/bin/../lib/gcc/ba-elf/4.7.4/mcpu_jn51xx_sizeopt\libgcc.a(_fixunsdfsi.o)
 .debug_abbrev  0x00000000000003dd      0x16e c:/nxp/bstudio_nxp/sdk/tools/ba-elf-ba2-r36379/bin/../lib/gcc/ba-elf/4.7.4/mcpu_jn51xx_sizeopt\libgcc.a(_divdi3.o)
 .debug_abbrev  0x000000000000054b      0x15d c:/nxp/bstudio_nxp/sdk/tools/ba-elf-ba2-r36379/bin/../lib/gcc/ba-elf/4.7.4/mcpu_jn51xx_sizeopt\libgcc.a(_udivdi3.o)
 .debug_abbrev  0x00000000000006a8      0x133 c:/nxp/bstudio_nxp/sdk/tools/ba-elf-ba2-r36379/bin/../lib/gcc/ba-elf/4.7.4/mcpu_jn51xx_sizeopt\libgcc.a(addsf3.o)
 .debug_abbrev  0x00000000000007db      0x126 c:/nxp/bstudio_nxp/sdk/tools/ba-elf-ba2-r36379/bin/../lib/gcc/ba-elf/4.7.4/mcpu_jn51xx_sizeopt\libgcc.a(divsf3.o)
 .debug_abbrev  0x0000000000000901      0x11b c:/nxp/bstudio_nxp/sdk/tools/ba-elf-ba2-r36379/bin/../lib/gcc/ba-elf/4.7.4/mcpu_jn51xx_sizeopt\libgcc.a(eqsf2.o)
 .debug_abbrev  0x0000000000000a1c      0x12a c:/nxp/bstudio_nxp/sdk/tools/ba-elf-ba2-r36379/bin/../lib/gcc/ba-elf/4.7.4/mcpu_jn51xx_sizeopt\libgcc.a(gesf2.o)
 .debug_abbrev  0x0000000000000b46      0x12a c:/nxp/bstudio_nxp/sdk/tools/ba-elf-ba2-r36379/bin/../lib/gcc/ba-elf/4.7.4/mcpu_jn51xx_sizeopt\libgcc.a(lesf2.o)
 .debug_abbrev  0x0000000000000c70      0x12d c:/nxp/bstudio_nxp/sdk/tools/ba-elf-ba2-r36379/bin/../lib/gcc/ba-elf/4.7.4/mcpu_jn51xx_sizeopt\libgcc.a(mulsf3.o)
 .debug_abbrev  0x0000000000000d9d      0x133 c:/nxp/bstudio_nxp/sdk/tools/ba-elf-ba2-r36379/bin/../lib/gcc/ba-elf/4.7.4/mcpu_jn51xx_sizeopt\libgcc.a(subsf3.o)
 .debug_abbrev  0x0000000000000ed0      0x12c c:/nxp/bstudio_nxp/sdk/tools/ba-elf-ba2-r36379/bin/../lib/gcc/ba-elf/4.7.4/mcpu_jn51xx_sizeopt\libgcc.a(fixsfsi.o)
 .debug_abbrev  0x0000000000000ffc      0x11b c:/nxp/bstudio_nxp/sdk/tools/ba-elf-ba2-r36379/bin/../lib/gcc/ba-elf/4.7.4/mcpu_jn51xx_sizeopt\libgcc.a(floatunsisf.o)
 .debug_abbrev  0x0000000000001117      0x133 c:/nxp/bstudio_nxp/sdk/tools/ba-elf-ba2-r36379/bin/../lib/gcc/ba-elf/4.7.4/mcpu_jn51xx_sizeopt\libgcc.a(adddf3.o)
 .debug_abbrev  0x000000000000124a      0x12f c:/nxp/bstudio_nxp/sdk/tools/ba-elf-ba2-r36379/bin/../lib/gcc/ba-elf/4.7.4/mcpu_jn51xx_sizeopt\libgcc.a(divdf3.o)
 .debug_abbrev  0x0000000000001379      0x137 c:/nxp/bstudio_nxp/sdk/tools/ba-elf-ba2-r36379/bin/../lib/gcc/ba-elf/4.7.4/mcpu_jn51xx_sizeopt\libgcc.a(gedf2.o)
 .debug_abbrev  0x00000000000014b0      0x141 c:/nxp/bstudio_nxp/sdk/tools/ba-elf-ba2-r36379/bin/../lib/gcc/ba-elf/4.7.4/mcpu_jn51xx_sizeopt\libgcc.a(muldf3.o)
 .debug_abbrev  0x00000000000015f1      0x133 c:/nxp/bstudio_nxp/sdk/tools/ba-elf-ba2-r36379/bin/../lib/gcc/ba-elf/4.7.4/mcpu_jn51xx_sizeopt\libgcc.a(subdf3.o)
 .debug_abbrev  0x0000000000001724      0x12a c:/nxp/bstudio_nxp/sdk/tools/ba-elf-ba2-r36379/bin/../lib/gcc/ba-elf/4.7.4/mcpu_jn51xx_sizeopt\libgcc.a(fixdfsi.o)
 .debug_abbrev  0x000000000000184e      0x126 c:/nxp/bstudio_nxp/sdk/tools/ba-elf-ba2-r36379/bin/../lib/gcc/ba-elf/4.7.4/mcpu_jn51xx_sizeopt\libgcc.a(extendsfdf2.o)
 .debug_abbrev  0x0000000000001974      0x11b c:/nxp/bstudio_nxp/sdk/tools/ba-elf-ba2-r36379/bin/../lib/gcc/ba-elf/4.7.4/mcpu_jn51xx_sizeopt\libgcc.a(truncdfsf2.o)
 .debug_abbrev  0x0000000000001a8f       0x14 ../../../../sdk/JN-SW-4170/Components/Library\libBoot_JN516x.a(ExceptionHandler.o)
 .debug_abbrev  0x0000000000001aa3       0xeb c:/nxp/bstudio_nxp/sdk/tools/ba-elf-ba2-r36379/bin/../lib/gcc/ba-elf/4.7.4/../../../../ba-elf/lib/mcpu_jn51xx_sizeopt\libm.a(lib_a-s_floor.o)

.debug_loc      0x0000000000000000     0x820b
 .debug_loc     0x0000000000000000       0x73 c:/nxp/bstudio_nxp/sdk/tools/ba-elf-ba2-r36379/bin/../lib/gcc/ba-elf/4.7.4/../../../../ba-elf/lib/mcpu_jn51xx_sizeopt\libc.a(lib_a-memcmp.o)
 .debug_loc     0x0000000000000073       0x39 c:/nxp/bstudio_nxp/sdk/tools/ba-elf-ba2-r36379/bin/../lib/gcc/ba-elf/4.7.4/../../../../ba-elf/lib/mcpu_jn51xx_sizeopt\libc.a(lib_a-memcpy.o)
 .debug_loc     0x00000000000000ac       0x3f c:/nxp/bstudio_nxp/sdk/tools/ba-elf-ba2-r36379/bin/../lib/gcc/ba-elf/4.7.4/../../../../ba-elf/lib/mcpu_jn51xx_sizeopt\libc.a(lib_a-memset.o)
 .debug_loc     0x00000000000000eb       0x3f c:/nxp/bstudio_nxp/sdk/tools/ba-elf-ba2-r36379/bin/../lib/gcc/ba-elf/4.7.4/../../../../ba-elf/lib/mcpu_jn51xx_sizeopt\libc.a(lib_a-strlen.o)
 .debug_loc     0x000000000000012a       0x93 c:/nxp/bstudio_nxp/sdk/tools/ba-elf-ba2-r36379/bin/../lib/gcc/ba-elf/4.7.4/../../../../ba-elf/lib/mcpu_jn51xx_sizeopt\libc.a(lib_a-strncpy.o)
 .debug_loc     0x00000000000001bd       0x43 c:/nxp/bstudio_nxp/sdk/tools/ba-elf-ba2-r36379/bin/../lib/gcc/ba-elf/4.7.4/mcpu_jn51xx_sizeopt\libgcc.a(_fixunssfsi.o)
 .debug_loc     0x0000000000000200       0x48 c:/nxp/bstudio_nxp/sdk/tools/ba-elf-ba2-r36379/bin/../lib/gcc/ba-elf/4.7.4/mcpu_jn51xx_sizeopt\libgcc.a(_fixunsdfsi.o)
 .debug_loc     0x0000000000000248      0xe52 c:/nxp/bstudio_nxp/sdk/tools/ba-elf-ba2-r36379/bin/../lib/gcc/ba-elf/4.7.4/mcpu_jn51xx_sizeopt\libgcc.a(_divdi3.o)
 .debug_loc     0x000000000000109a      0xa7b c:/nxp/bstudio_nxp/sdk/tools/ba-elf-ba2-r36379/bin/../lib/gcc/ba-elf/4.7.4/mcpu_jn51xx_sizeopt\libgcc.a(_udivdi3.o)
 .debug_loc     0x0000000000001b15      0x8d5 c:/nxp/bstudio_nxp/sdk/tools/ba-elf-ba2-r36379/bin/../lib/gcc/ba-elf/4.7.4/mcpu_jn51xx_sizeopt\libgcc.a(addsf3.o)
 .debug_loc     0x00000000000023ea      0x498 c:/nxp/bstudio_nxp/sdk/tools/ba-elf-ba2-r36379/bin/../lib/gcc/ba-elf/4.7.4/mcpu_jn51xx_sizeopt\libgcc.a(divsf3.o)
 .debug_loc     0x0000000000002882       0xc2 c:/nxp/bstudio_nxp/sdk/tools/ba-elf-ba2-r36379/bin/../lib/gcc/ba-elf/4.7.4/mcpu_jn51xx_sizeopt\libgcc.a(eqsf2.o)
 .debug_loc     0x0000000000002944      0x15e c:/nxp/bstudio_nxp/sdk/tools/ba-elf-ba2-r36379/bin/../lib/gcc/ba-elf/4.7.4/mcpu_jn51xx_sizeopt\libgcc.a(gesf2.o)
 .debug_loc     0x0000000000002aa2      0x10f c:/nxp/bstudio_nxp/sdk/tools/ba-elf-ba2-r36379/bin/../lib/gcc/ba-elf/4.7.4/mcpu_jn51xx_sizeopt\libgcc.a(lesf2.o)
 .debug_loc     0x0000000000002bb1      0x4a6 c:/nxp/bstudio_nxp/sdk/tools/ba-elf-ba2-r36379/bin/../lib/gcc/ba-elf/4.7.4/mcpu_jn51xx_sizeopt\libgcc.a(mulsf3.o)
 .debug_loc     0x0000000000003057      0x957 c:/nxp/bstudio_nxp/sdk/tools/ba-elf-ba2-r36379/bin/../lib/gcc/ba-elf/4.7.4/mcpu_jn51xx_sizeopt\libgcc.a(subsf3.o)
 .debug_loc     0x00000000000039ae       0x85 c:/nxp/bstudio_nxp/sdk/tools/ba-elf-ba2-r36379/bin/../lib/gcc/ba-elf/4.7.4/mcpu_jn51xx_sizeopt\libgcc.a(fixsfsi.o)
 .debug_loc     0x0000000000003a33      0x15c c:/nxp/bstudio_nxp/sdk/tools/ba-elf-ba2-r36379/bin/../lib/gcc/ba-elf/4.7.4/mcpu_jn51xx_sizeopt\libgcc.a(floatunsisf.o)
 .debug_loc     0x0000000000003b8f     0x10f3 c:/nxp/bstudio_nxp/sdk/tools/ba-elf-ba2-r36379/bin/../lib/gcc/ba-elf/4.7.4/mcpu_jn51xx_sizeopt\libgcc.a(adddf3.o)
 .debug_loc     0x0000000000004c82     0x117e c:/nxp/bstudio_nxp/sdk/tools/ba-elf-ba2-r36379/bin/../lib/gcc/ba-elf/4.7.4/mcpu_jn51xx_sizeopt\libgcc.a(divdf3.o)
 .debug_loc     0x0000000000005e00      0x154 c:/nxp/bstudio_nxp/sdk/tools/ba-elf-ba2-r36379/bin/../lib/gcc/ba-elf/4.7.4/mcpu_jn51xx_sizeopt\libgcc.a(gedf2.o)
 .debug_loc     0x0000000000005f54      0xa0e c:/nxp/bstudio_nxp/sdk/tools/ba-elf-ba2-r36379/bin/../lib/gcc/ba-elf/4.7.4/mcpu_jn51xx_sizeopt\libgcc.a(muldf3.o)
 .debug_loc     0x0000000000006962     0x114e c:/nxp/bstudio_nxp/sdk/tools/ba-elf-ba2-r36379/bin/../lib/gcc/ba-elf/4.7.4/mcpu_jn51xx_sizeopt\libgcc.a(subdf3.o)
 .debug_loc     0x0000000000007ab0       0xa8 c:/nxp/bstudio_nxp/sdk/tools/ba-elf-ba2-r36379/bin/../lib/gcc/ba-elf/4.7.4/mcpu_jn51xx_sizeopt\libgcc.a(fixdfsi.o)
 .debug_loc     0x0000000000007b58      0x1ed c:/nxp/bstudio_nxp/sdk/tools/ba-elf-ba2-r36379/bin/../lib/gcc/ba-elf/4.7.4/mcpu_jn51xx_sizeopt\libgcc.a(extendsfdf2.o)
 .debug_loc     0x0000000000007d45      0x299 c:/nxp/bstudio_nxp/sdk/tools/ba-elf-ba2-r36379/bin/../lib/gcc/ba-elf/4.7.4/mcpu_jn51xx_sizeopt\libgcc.a(truncdfsf2.o)
 .debug_loc     0x0000000000007fde      0x22d c:/nxp/bstudio_nxp/sdk/tools/ba-elf-ba2-r36379/bin/../lib/gcc/ba-elf/4.7.4/../../../../ba-elf/lib/mcpu_jn51xx_sizeopt\libm.a(lib_a-s_floor.o)

.debug_aranges  0x0000000000000000      0x400
 .debug_aranges
                0x0000000000000000       0x20 c:/nxp/bstudio_nxp/sdk/tools/ba-elf-ba2-r36379/bin/../lib/gcc/ba-elf/4.7.4/../../../../ba-elf/lib/mcpu_jn51xx_sizeopt\libc.a(lib_a-memcmp.o)
 .debug_aranges
                0x0000000000000020       0x20 c:/nxp/bstudio_nxp/sdk/tools/ba-elf-ba2-r36379/bin/../lib/gcc/ba-elf/4.7.4/../../../../ba-elf/lib/mcpu_jn51xx_sizeopt\libc.a(lib_a-memcpy.o)
 .debug_aranges
                0x0000000000000040       0x20 c:/nxp/bstudio_nxp/sdk/tools/ba-elf-ba2-r36379/bin/../lib/gcc/ba-elf/4.7.4/../../../../ba-elf/lib/mcpu_jn51xx_sizeopt\libc.a(lib_a-memset.o)
 .debug_aranges
                0x0000000000000060       0x20 c:/nxp/bstudio_nxp/sdk/tools/ba-elf-ba2-r36379/bin/../lib/gcc/ba-elf/4.7.4/../../../../ba-elf/lib/mcpu_jn51xx_sizeopt\libc.a(lib_a-strlen.o)
 .debug_aranges
                0x0000000000000080       0x20 c:/nxp/bstudio_nxp/sdk/tools/ba-elf-ba2-r36379/bin/../lib/gcc/ba-elf/4.7.4/../../../../ba-elf/lib/mcpu_jn51xx_sizeopt\libc.a(lib_a-strncpy.o)
 .debug_aranges
                0x00000000000000a0       0x20 c:/nxp/bstudio_nxp/sdk/tools/ba-elf-ba2-r36379/bin/../lib/gcc/ba-elf/4.7.4/mcpu_jn51xx_sizeopt\libgcc.a(__udivsi3.o)
 .debug_aranges
                0x00000000000000c0       0x20 c:/nxp/bstudio_nxp/sdk/tools/ba-elf-ba2-r36379/bin/../lib/gcc/ba-elf/4.7.4/mcpu_jn51xx_sizeopt\libgcc.a(__divsi3.o)
 .debug_aranges
                0x00000000000000e0       0x20 c:/nxp/bstudio_nxp/sdk/tools/ba-elf-ba2-r36379/bin/../lib/gcc/ba-elf/4.7.4/mcpu_jn51xx_sizeopt\libgcc.a(__umodsi3.o)
 .debug_aranges
                0x0000000000000100       0x20 c:/nxp/bstudio_nxp/sdk/tools/ba-elf-ba2-r36379/bin/../lib/gcc/ba-elf/4.7.4/mcpu_jn51xx_sizeopt\libgcc.a(__modsi3.o)
 .debug_aranges
                0x0000000000000120       0x20 c:/nxp/bstudio_nxp/sdk/tools/ba-elf-ba2-r36379/bin/../lib/gcc/ba-elf/4.7.4/mcpu_jn51xx_sizeopt\libgcc.a(_fixunssfsi.o)
 .debug_aranges
                0x0000000000000140       0x20 c:/nxp/bstudio_nxp/sdk/tools/ba-elf-ba2-r36379/bin/../lib/gcc/ba-elf/4.7.4/mcpu_jn51xx_sizeopt\libgcc.a(_fixunsdfsi.o)
 .debug_aranges
                0x0000000000000160       0x20 c:/nxp/bstudio_nxp/sdk/tools/ba-elf-ba2-r36379/bin/../lib/gcc/ba-elf/4.7.4/mcpu_jn51xx_sizeopt\libgcc.a(_divdi3.o)
 .debug_aranges
                0x0000000000000180       0x20 c:/nxp/bstudio_nxp/sdk/tools/ba-elf-ba2-r36379/bin/../lib/gcc/ba-elf/4.7.4/mcpu_jn51xx_sizeopt\libgcc.a(_udivdi3.o)
 .debug_aranges
                0x00000000000001a0       0x20 c:/nxp/bstudio_nxp/sdk/tools/ba-elf-ba2-r36379/bin/../lib/gcc/ba-elf/4.7.4/mcpu_jn51xx_sizeopt\libgcc.a(addsf3.o)
 .debug_aranges
                0x00000000000001c0       0x20 c:/nxp/bstudio_nxp/sdk/tools/ba-elf-ba2-r36379/bin/../lib/gcc/ba-elf/4.7.4/mcpu_jn51xx_sizeopt\libgcc.a(divsf3.o)
 .debug_aranges
                0x00000000000001e0       0x20 c:/nxp/bstudio_nxp/sdk/tools/ba-elf-ba2-r36379/bin/../lib/gcc/ba-elf/4.7.4/mcpu_jn51xx_sizeopt\libgcc.a(eqsf2.o)
 .debug_aranges
                0x0000000000000200       0x20 c:/nxp/bstudio_nxp/sdk/tools/ba-elf-ba2-r36379/bin/../lib/gcc/ba-elf/4.7.4/mcpu_jn51xx_sizeopt\libgcc.a(gesf2.o)
 .debug_aranges
                0x0000000000000220       0x20 c:/nxp/bstudio_nxp/sdk/tools/ba-elf-ba2-r36379/bin/../lib/gcc/ba-elf/4.7.4/mcpu_jn51xx_sizeopt\libgcc.a(lesf2.o)
 .debug_aranges
                0x0000000000000240       0x20 c:/nxp/bstudio_nxp/sdk/tools/ba-elf-ba2-r36379/bin/../lib/gcc/ba-elf/4.7.4/mcpu_jn51xx_sizeopt\libgcc.a(mulsf3.o)
 .debug_aranges
                0x0000000000000260       0x20 c:/nxp/bstudio_nxp/sdk/tools/ba-elf-ba2-r36379/bin/../lib/gcc/ba-elf/4.7.4/mcpu_jn51xx_sizeopt\libgcc.a(subsf3.o)
 .debug_aranges
                0x0000000000000280       0x20 c:/nxp/bstudio_nxp/sdk/tools/ba-elf-ba2-r36379/bin/../lib/gcc/ba-elf/4.7.4/mcpu_jn51xx_sizeopt\libgcc.a(fixsfsi.o)
 .debug_aranges
                0x00000000000002a0       0x20 c:/nxp/bstudio_nxp/sdk/tools/ba-elf-ba2-r36379/bin/../lib/gcc/ba-elf/4.7.4/mcpu_jn51xx_sizeopt\libgcc.a(floatunsisf.o)
 .debug_aranges
                0x00000000000002c0       0x20 c:/nxp/bstudio_nxp/sdk/tools/ba-elf-ba2-r36379/bin/../lib/gcc/ba-elf/4.7.4/mcpu_jn51xx_sizeopt\libgcc.a(adddf3.o)
 .debug_aranges
                0x00000000000002e0       0x20 c:/nxp/bstudio_nxp/sdk/tools/ba-elf-ba2-r36379/bin/../lib/gcc/ba-elf/4.7.4/mcpu_jn51xx_sizeopt\libgcc.a(divdf3.o)
 .debug_aranges
                0x0000000000000300       0x20 c:/nxp/bstudio_nxp/sdk/tools/ba-elf-ba2-r36379/bin/../lib/gcc/ba-elf/4.7.4/mcpu_jn51xx_sizeopt\libgcc.a(gedf2.o)
 .debug_aranges
                0x0000000000000320       0x20 c:/nxp/bstudio_nxp/sdk/tools/ba-elf-ba2-r36379/bin/../lib/gcc/ba-elf/4.7.4/mcpu_jn51xx_sizeopt\libgcc.a(muldf3.o)
 .debug_aranges
                0x0000000000000340       0x20 c:/nxp/bstudio_nxp/sdk/tools/ba-elf-ba2-r36379/bin/../lib/gcc/ba-elf/4.7.4/mcpu_jn51xx_sizeopt\libgcc.a(subdf3.o)
 .debug_aranges
                0x0000000000000360       0x20 c:/nxp/bstudio_nxp/sdk/tools/ba-elf-ba2-r36379/bin/../lib/gcc/ba-elf/4.7.4/mcpu_jn51xx_sizeopt\libgcc.a(fixdfsi.o)
 .debug_aranges
                0x0000000000000380       0x20 c:/nxp/bstudio_nxp/sdk/tools/ba-elf-ba2-r36379/bin/../lib/gcc/ba-elf/4.7.4/mcpu_jn51xx_sizeopt\libgcc.a(extendsfdf2.o)
 .debug_aranges
                0x00000000000003a0       0x20 c:/nxp/bstudio_nxp/sdk/tools/ba-elf-ba2-r36379/bin/../lib/gcc/ba-elf/4.7.4/mcpu_jn51xx_sizeopt\libgcc.a(truncdfsf2.o)
 .debug_aranges
                0x00000000000003c0       0x20 ../../../../sdk/JN-SW-4170/Components/Library\libBoot_JN516x.a(ExceptionHandler.o)
 .debug_aranges
                0x00000000000003e0       0x20 c:/nxp/bstudio_nxp/sdk/tools/ba-elf-ba2-r36379/bin/../lib/gcc/ba-elf/4.7.4/../../../../ba-elf/lib/mcpu_jn51xx_sizeopt\libm.a(lib_a-s_floor.o)

.debug_line     0x0000000000000000     0x4135
 .debug_line    0x0000000000000000      0x154 c:/nxp/bstudio_nxp/sdk/tools/ba-elf-ba2-r36379/bin/../lib/gcc/ba-elf/4.7.4/../../../../ba-elf/lib/mcpu_jn51xx_sizeopt\libc.a(lib_a-memcmp.o)
 .debug_line    0x0000000000000154      0x148 c:/nxp/bstudio_nxp/sdk/tools/ba-elf-ba2-r36379/bin/../lib/gcc/ba-elf/4.7.4/../../../../ba-elf/lib/mcpu_jn51xx_sizeopt\libc.a(lib_a-memcpy.o)
 .debug_line    0x000000000000029c      0x13e c:/nxp/bstudio_nxp/sdk/tools/ba-elf-ba2-r36379/bin/../lib/gcc/ba-elf/4.7.4/../../../../ba-elf/lib/mcpu_jn51xx_sizeopt\libc.a(lib_a-memset.o)
 .debug_line    0x00000000000003da      0x12e c:/nxp/bstudio_nxp/sdk/tools/ba-elf-ba2-r36379/bin/../lib/gcc/ba-elf/4.7.4/../../../../ba-elf/lib/mcpu_jn51xx_sizeopt\libc.a(lib_a-strlen.o)
 .debug_line    0x0000000000000508      0x160 c:/nxp/bstudio_nxp/sdk/tools/ba-elf-ba2-r36379/bin/../lib/gcc/ba-elf/4.7.4/../../../../ba-elf/lib/mcpu_jn51xx_sizeopt\libc.a(lib_a-strncpy.o)
 .debug_line    0x0000000000000668      0x47b c:/nxp/bstudio_nxp/sdk/tools/ba-elf-ba2-r36379/bin/../lib/gcc/ba-elf/4.7.4/mcpu_jn51xx_sizeopt\libgcc.a(__udivsi3.o)
 .debug_line    0x0000000000000ae3       0xbb c:/nxp/bstudio_nxp/sdk/tools/ba-elf-ba2-r36379/bin/../lib/gcc/ba-elf/4.7.4/mcpu_jn51xx_sizeopt\libgcc.a(__divsi3.o)
 .debug_line    0x0000000000000b9e      0x3c7 c:/nxp/bstudio_nxp/sdk/tools/ba-elf-ba2-r36379/bin/../lib/gcc/ba-elf/4.7.4/mcpu_jn51xx_sizeopt\libgcc.a(__umodsi3.o)
 .debug_line    0x0000000000000f65       0xa3 c:/nxp/bstudio_nxp/sdk/tools/ba-elf-ba2-r36379/bin/../lib/gcc/ba-elf/4.7.4/mcpu_jn51xx_sizeopt\libgcc.a(__modsi3.o)
 .debug_line    0x0000000000001008       0x99 c:/nxp/bstudio_nxp/sdk/tools/ba-elf-ba2-r36379/bin/../lib/gcc/ba-elf/4.7.4/mcpu_jn51xx_sizeopt\libgcc.a(_fixunssfsi.o)
 .debug_line    0x00000000000010a1       0x9f c:/nxp/bstudio_nxp/sdk/tools/ba-elf-ba2-r36379/bin/../lib/gcc/ba-elf/4.7.4/mcpu_jn51xx_sizeopt\libgcc.a(_fixunsdfsi.o)
 .debug_line    0x0000000000001140      0x20e c:/nxp/bstudio_nxp/sdk/tools/ba-elf-ba2-r36379/bin/../lib/gcc/ba-elf/4.7.4/mcpu_jn51xx_sizeopt\libgcc.a(_divdi3.o)
 .debug_line    0x000000000000134e      0x1b7 c:/nxp/bstudio_nxp/sdk/tools/ba-elf-ba2-r36379/bin/../lib/gcc/ba-elf/4.7.4/mcpu_jn51xx_sizeopt\libgcc.a(_udivdi3.o)
 .debug_line    0x0000000000001505      0x448 c:/nxp/bstudio_nxp/sdk/tools/ba-elf-ba2-r36379/bin/../lib/gcc/ba-elf/4.7.4/mcpu_jn51xx_sizeopt\libgcc.a(addsf3.o)
 .debug_line    0x000000000000194d      0x1b4 c:/nxp/bstudio_nxp/sdk/tools/ba-elf-ba2-r36379/bin/../lib/gcc/ba-elf/4.7.4/mcpu_jn51xx_sizeopt\libgcc.a(divsf3.o)
 .debug_line    0x0000000000001b01       0xe5 c:/nxp/bstudio_nxp/sdk/tools/ba-elf-ba2-r36379/bin/../lib/gcc/ba-elf/4.7.4/mcpu_jn51xx_sizeopt\libgcc.a(eqsf2.o)
 .debug_line    0x0000000000001be6      0x115 c:/nxp/bstudio_nxp/sdk/tools/ba-elf-ba2-r36379/bin/../lib/gcc/ba-elf/4.7.4/mcpu_jn51xx_sizeopt\libgcc.a(gesf2.o)
 .debug_line    0x0000000000001cfb      0x115 c:/nxp/bstudio_nxp/sdk/tools/ba-elf-ba2-r36379/bin/../lib/gcc/ba-elf/4.7.4/mcpu_jn51xx_sizeopt\libgcc.a(lesf2.o)
 .debug_line    0x0000000000001e10      0x199 c:/nxp/bstudio_nxp/sdk/tools/ba-elf-ba2-r36379/bin/../lib/gcc/ba-elf/4.7.4/mcpu_jn51xx_sizeopt\libgcc.a(mulsf3.o)
 .debug_line    0x0000000000001fa9      0x475 c:/nxp/bstudio_nxp/sdk/tools/ba-elf-ba2-r36379/bin/../lib/gcc/ba-elf/4.7.4/mcpu_jn51xx_sizeopt\libgcc.a(subsf3.o)
 .debug_line    0x000000000000241e       0xc8 c:/nxp/bstudio_nxp/sdk/tools/ba-elf-ba2-r36379/bin/../lib/gcc/ba-elf/4.7.4/mcpu_jn51xx_sizeopt\libgcc.a(fixsfsi.o)
 .debug_line    0x00000000000024e6      0x10e c:/nxp/bstudio_nxp/sdk/tools/ba-elf-ba2-r36379/bin/../lib/gcc/ba-elf/4.7.4/mcpu_jn51xx_sizeopt\libgcc.a(floatunsisf.o)
 .debug_line    0x00000000000025f4      0x63d c:/nxp/bstudio_nxp/sdk/tools/ba-elf-ba2-r36379/bin/../lib/gcc/ba-elf/4.7.4/mcpu_jn51xx_sizeopt\libgcc.a(adddf3.o)
 .debug_line    0x0000000000002c31      0x3b5 c:/nxp/bstudio_nxp/sdk/tools/ba-elf-ba2-r36379/bin/../lib/gcc/ba-elf/4.7.4/mcpu_jn51xx_sizeopt\libgcc.a(divdf3.o)
 .debug_line    0x0000000000002fe6      0x15f c:/nxp/bstudio_nxp/sdk/tools/ba-elf-ba2-r36379/bin/../lib/gcc/ba-elf/4.7.4/mcpu_jn51xx_sizeopt\libgcc.a(gedf2.o)
 .debug_line    0x0000000000003145      0x269 c:/nxp/bstudio_nxp/sdk/tools/ba-elf-ba2-r36379/bin/../lib/gcc/ba-elf/4.7.4/mcpu_jn51xx_sizeopt\libgcc.a(muldf3.o)
 .debug_line    0x00000000000033ae      0x656 c:/nxp/bstudio_nxp/sdk/tools/ba-elf-ba2-r36379/bin/../lib/gcc/ba-elf/4.7.4/mcpu_jn51xx_sizeopt\libgcc.a(subdf3.o)
 .debug_line    0x0000000000003a04       0xc8 c:/nxp/bstudio_nxp/sdk/tools/ba-elf-ba2-r36379/bin/../lib/gcc/ba-elf/4.7.4/mcpu_jn51xx_sizeopt\libgcc.a(fixdfsi.o)
 .debug_line    0x0000000000003acc      0x10b c:/nxp/bstudio_nxp/sdk/tools/ba-elf-ba2-r36379/bin/../lib/gcc/ba-elf/4.7.4/mcpu_jn51xx_sizeopt\libgcc.a(extendsfdf2.o)
 .debug_line    0x0000000000003bd7      0x18a c:/nxp/bstudio_nxp/sdk/tools/ba-elf-ba2-r36379/bin/../lib/gcc/ba-elf/4.7.4/mcpu_jn51xx_sizeopt\libgcc.a(truncdfsf2.o)
 .debug_line    0x0000000000003d61      0x1a1 ../../../../sdk/JN-SW-4170/Components/Library\libBoot_JN516x.a(ExceptionHandler.o)
 .debug_line    0x0000000000003f02      0x233 c:/nxp/bstudio_nxp/sdk/tools/ba-elf-ba2-r36379/bin/../lib/gcc/ba-elf/4.7.4/../../../../ba-elf/lib/mcpu_jn51xx_sizeopt\libm.a(lib_a-s_floor.o)

.debug_str      0x0000000000000000      0xa63
 .debug_str     0x0000000000000000      0x119 c:/nxp/bstudio_nxp/sdk/tools/ba-elf-ba2-r36379/bin/../lib/gcc/ba-elf/4.7.4/../../../../ba-elf/lib/mcpu_jn51xx_sizeopt\libc.a(lib_a-memcmp.o)
                                        0x152 (size before relaxing)
 .debug_str     0x0000000000000119       0x5d c:/nxp/bstudio_nxp/sdk/tools/ba-elf-ba2-r36379/bin/../lib/gcc/ba-elf/4.7.4/../../../../ba-elf/lib/mcpu_jn51xx_sizeopt\libc.a(lib_a-memcpy.o)
                                        0x166 (size before relaxing)
 .debug_str     0x0000000000000176       0x49 c:/nxp/bstudio_nxp/sdk/tools/ba-elf-ba2-r36379/bin/../lib/gcc/ba-elf/4.7.4/../../../../ba-elf/lib/mcpu_jn51xx_sizeopt\libc.a(lib_a-memset.o)
                                        0x152 (size before relaxing)
 .debug_str     0x00000000000001bf       0x4f c:/nxp/bstudio_nxp/sdk/tools/ba-elf-ba2-r36379/bin/../lib/gcc/ba-elf/4.7.4/../../../../ba-elf/lib/mcpu_jn51xx_sizeopt\libc.a(lib_a-strlen.o)
                                        0x158 (size before relaxing)
 .debug_str     0x000000000000020e       0x5d c:/nxp/bstudio_nxp/sdk/tools/ba-elf-ba2-r36379/bin/../lib/gcc/ba-elf/4.7.4/../../../../ba-elf/lib/mcpu_jn51xx_sizeopt\libc.a(lib_a-strncpy.o)
                                        0x170 (size before relaxing)
 .debug_str     0x000000000000026b       0xc2 c:/nxp/bstudio_nxp/sdk/tools/ba-elf-ba2-r36379/bin/../lib/gcc/ba-elf/4.7.4/mcpu_jn51xx_sizeopt\libgcc.a(_fixunssfsi.o)
                                        0x166 (size before relaxing)
 .debug_str     0x000000000000032d       0x14 c:/nxp/bstudio_nxp/sdk/tools/ba-elf-ba2-r36379/bin/../lib/gcc/ba-elf/4.7.4/mcpu_jn51xx_sizeopt\libgcc.a(_fixunsdfsi.o)
                                        0x166 (size before relaxing)
 .debug_str     0x0000000000000341       0x7a c:/nxp/bstudio_nxp/sdk/tools/ba-elf-ba2-r36379/bin/../lib/gcc/ba-elf/4.7.4/mcpu_jn51xx_sizeopt\libgcc.a(_divdi3.o)
                                        0x1d3 (size before relaxing)
 .debug_str     0x00000000000003bb        0xa c:/nxp/bstudio_nxp/sdk/tools/ba-elf-ba2-r36379/bin/../lib/gcc/ba-elf/4.7.4/mcpu_jn51xx_sizeopt\libgcc.a(_udivdi3.o)
                                        0x1d4 (size before relaxing)
 .debug_str     0x00000000000003c5       0xa1 c:/nxp/bstudio_nxp/sdk/tools/ba-elf-ba2-r36379/bin/../lib/gcc/ba-elf/4.7.4/mcpu_jn51xx_sizeopt\libgcc.a(addsf3.o)
                                        0x191 (size before relaxing)
 .debug_str     0x0000000000000466       0x48 c:/nxp/bstudio_nxp/sdk/tools/ba-elf-ba2-r36379/bin/../lib/gcc/ba-elf/4.7.4/mcpu_jn51xx_sizeopt\libgcc.a(divsf3.o)
                                        0x15e (size before relaxing)
 .debug_str     0x00000000000004ae       0x3f c:/nxp/bstudio_nxp/sdk/tools/ba-elf-ba2-r36379/bin/../lib/gcc/ba-elf/4.7.4/mcpu_jn51xx_sizeopt\libgcc.a(eqsf2.o)
                                        0x14f (size before relaxing)
 .debug_str     0x00000000000004ed       0x57 c:/nxp/bstudio_nxp/sdk/tools/ba-elf-ba2-r36379/bin/../lib/gcc/ba-elf/4.7.4/mcpu_jn51xx_sizeopt\libgcc.a(gesf2.o)
                                        0x167 (size before relaxing)
 .debug_str     0x0000000000000544       0x3f c:/nxp/bstudio_nxp/sdk/tools/ba-elf-ba2-r36379/bin/../lib/gcc/ba-elf/4.7.4/mcpu_jn51xx_sizeopt\libgcc.a(lesf2.o)
                                        0x167 (size before relaxing)
 .debug_str     0x0000000000000583       0x55 c:/nxp/bstudio_nxp/sdk/tools/ba-elf-ba2-r36379/bin/../lib/gcc/ba-elf/4.7.4/mcpu_jn51xx_sizeopt\libgcc.a(mulsf3.o)
                                        0x194 (size before relaxing)
 .debug_str     0x00000000000005d8       0x41 c:/nxp/bstudio_nxp/sdk/tools/ba-elf-ba2-r36379/bin/../lib/gcc/ba-elf/4.7.4/mcpu_jn51xx_sizeopt\libgcc.a(subsf3.o)
                                        0x191 (size before relaxing)
 .debug_str     0x0000000000000619       0x4b c:/nxp/bstudio_nxp/sdk/tools/ba-elf-ba2-r36379/bin/../lib/gcc/ba-elf/4.7.4/mcpu_jn51xx_sizeopt\libgcc.a(fixsfsi.o)
                                        0x16a (size before relaxing)
 .debug_str     0x0000000000000664       0x58 c:/nxp/bstudio_nxp/sdk/tools/ba-elf-ba2-r36379/bin/../lib/gcc/ba-elf/4.7.4/mcpu_jn51xx_sizeopt\libgcc.a(floatunsisf.o)
                                        0x170 (size before relaxing)
 .debug_str     0x00000000000006bc       0x77 c:/nxp/bstudio_nxp/sdk/tools/ba-elf-ba2-r36379/bin/../lib/gcc/ba-elf/4.7.4/mcpu_jn51xx_sizeopt\libgcc.a(adddf3.o)
                                        0x1b7 (size before relaxing)
 .debug_str     0x0000000000000733       0x6b c:/nxp/bstudio_nxp/sdk/tools/ba-elf-ba2-r36379/bin/../lib/gcc/ba-elf/4.7.4/mcpu_jn51xx_sizeopt\libgcc.a(divdf3.o)
                                        0x1f6 (size before relaxing)
 .debug_str     0x000000000000079e       0x3f c:/nxp/bstudio_nxp/sdk/tools/ba-elf-ba2-r36379/bin/../lib/gcc/ba-elf/4.7.4/mcpu_jn51xx_sizeopt\libgcc.a(gedf2.o)
                                        0x183 (size before relaxing)
 .debug_str     0x00000000000007dd       0x72 c:/nxp/bstudio_nxp/sdk/tools/ba-elf-ba2-r36379/bin/../lib/gcc/ba-elf/4.7.4/mcpu_jn51xx_sizeopt\libgcc.a(muldf3.o)
                                        0x1e8 (size before relaxing)
 .debug_str     0x000000000000084f       0x41 c:/nxp/bstudio_nxp/sdk/tools/ba-elf-ba2-r36379/bin/../lib/gcc/ba-elf/4.7.4/mcpu_jn51xx_sizeopt\libgcc.a(subdf3.o)
                                        0x1b7 (size before relaxing)
 .debug_str     0x0000000000000890       0x43 c:/nxp/bstudio_nxp/sdk/tools/ba-elf-ba2-r36379/bin/../lib/gcc/ba-elf/4.7.4/mcpu_jn51xx_sizeopt\libgcc.a(fixdfsi.o)
                                        0x17c (size before relaxing)
 .debug_str     0x00000000000008d3       0x4b c:/nxp/bstudio_nxp/sdk/tools/ba-elf-ba2-r36379/bin/../lib/gcc/ba-elf/4.7.4/mcpu_jn51xx_sizeopt\libgcc.a(extendsfdf2.o)
                                        0x18b (size before relaxing)
 .debug_str     0x000000000000091e       0x49 c:/nxp/bstudio_nxp/sdk/tools/ba-elf-ba2-r36379/bin/../lib/gcc/ba-elf/4.7.4/mcpu_jn51xx_sizeopt\libgcc.a(truncdfsf2.o)
                                        0x189 (size before relaxing)
 .debug_str     0x0000000000000967       0xfc c:/nxp/bstudio_nxp/sdk/tools/ba-elf-ba2-r36379/bin/../lib/gcc/ba-elf/4.7.4/../../../../ba-elf/lib/mcpu_jn51xx_sizeopt\libm.a(lib_a-s_floor.o)
                                        0x1a7 (size before relaxing)

.debug_frame    0x0000000000000000      0x40c
 .debug_frame   0x0000000000000000       0x20 c:/nxp/bstudio_nxp/sdk/tools/ba-elf-ba2-r36379/bin/../lib/gcc/ba-elf/4.7.4/../../../../ba-elf/lib/mcpu_jn51xx_sizeopt\libc.a(lib_a-memcmp.o)
 .debug_frame   0x0000000000000020       0x20 c:/nxp/bstudio_nxp/sdk/tools/ba-elf-ba2-r36379/bin/../lib/gcc/ba-elf/4.7.4/../../../../ba-elf/lib/mcpu_jn51xx_sizeopt\libc.a(lib_a-memcpy.o)
 .debug_frame   0x0000000000000040       0x20 c:/nxp/bstudio_nxp/sdk/tools/ba-elf-ba2-r36379/bin/../lib/gcc/ba-elf/4.7.4/../../../../ba-elf/lib/mcpu_jn51xx_sizeopt\libc.a(lib_a-memset.o)
 .debug_frame   0x0000000000000060       0x20 c:/nxp/bstudio_nxp/sdk/tools/ba-elf-ba2-r36379/bin/../lib/gcc/ba-elf/4.7.4/../../../../ba-elf/lib/mcpu_jn51xx_sizeopt\libc.a(lib_a-strlen.o)
 .debug_frame   0x0000000000000080       0x20 c:/nxp/bstudio_nxp/sdk/tools/ba-elf-ba2-r36379/bin/../lib/gcc/ba-elf/4.7.4/../../../../ba-elf/lib/mcpu_jn51xx_sizeopt\libc.a(lib_a-strncpy.o)
 .debug_frame   0x00000000000000a0       0x28 c:/nxp/bstudio_nxp/sdk/tools/ba-elf-ba2-r36379/bin/../lib/gcc/ba-elf/4.7.4/mcpu_jn51xx_sizeopt\libgcc.a(_fixunssfsi.o)
 .debug_frame   0x00000000000000c8       0x2c c:/nxp/bstudio_nxp/sdk/tools/ba-elf-ba2-r36379/bin/../lib/gcc/ba-elf/4.7.4/mcpu_jn51xx_sizeopt\libgcc.a(_fixunsdfsi.o)
 .debug_frame   0x00000000000000f4       0x2c c:/nxp/bstudio_nxp/sdk/tools/ba-elf-ba2-r36379/bin/../lib/gcc/ba-elf/4.7.4/mcpu_jn51xx_sizeopt\libgcc.a(addsf3.o)
 .debug_frame   0x0000000000000120       0x30 c:/nxp/bstudio_nxp/sdk/tools/ba-elf-ba2-r36379/bin/../lib/gcc/ba-elf/4.7.4/mcpu_jn51xx_sizeopt\libgcc.a(divsf3.o)
 .debug_frame   0x0000000000000150       0x2c c:/nxp/bstudio_nxp/sdk/tools/ba-elf-ba2-r36379/bin/../lib/gcc/ba-elf/4.7.4/mcpu_jn51xx_sizeopt\libgcc.a(eqsf2.o)
 .debug_frame   0x000000000000017c       0x2c c:/nxp/bstudio_nxp/sdk/tools/ba-elf-ba2-r36379/bin/../lib/gcc/ba-elf/4.7.4/mcpu_jn51xx_sizeopt\libgcc.a(gesf2.o)
 .debug_frame   0x00000000000001a8       0x2c c:/nxp/bstudio_nxp/sdk/tools/ba-elf-ba2-r36379/bin/../lib/gcc/ba-elf/4.7.4/mcpu_jn51xx_sizeopt\libgcc.a(lesf2.o)
 .debug_frame   0x00000000000001d4       0x30 c:/nxp/bstudio_nxp/sdk/tools/ba-elf-ba2-r36379/bin/../lib/gcc/ba-elf/4.7.4/mcpu_jn51xx_sizeopt\libgcc.a(mulsf3.o)
 .debug_frame   0x0000000000000204       0x2c c:/nxp/bstudio_nxp/sdk/tools/ba-elf-ba2-r36379/bin/../lib/gcc/ba-elf/4.7.4/mcpu_jn51xx_sizeopt\libgcc.a(subsf3.o)
 .debug_frame   0x0000000000000230       0x20 c:/nxp/bstudio_nxp/sdk/tools/ba-elf-ba2-r36379/bin/../lib/gcc/ba-elf/4.7.4/mcpu_jn51xx_sizeopt\libgcc.a(fixsfsi.o)
 .debug_frame   0x0000000000000250       0x20 c:/nxp/bstudio_nxp/sdk/tools/ba-elf-ba2-r36379/bin/../lib/gcc/ba-elf/4.7.4/mcpu_jn51xx_sizeopt\libgcc.a(floatunsisf.o)
 .debug_frame   0x0000000000000270       0x30 c:/nxp/bstudio_nxp/sdk/tools/ba-elf-ba2-r36379/bin/../lib/gcc/ba-elf/4.7.4/mcpu_jn51xx_sizeopt\libgcc.a(adddf3.o)
 .debug_frame   0x00000000000002a0       0x34 c:/nxp/bstudio_nxp/sdk/tools/ba-elf-ba2-r36379/bin/../lib/gcc/ba-elf/4.7.4/mcpu_jn51xx_sizeopt\libgcc.a(divdf3.o)
 .debug_frame   0x00000000000002d4       0x34 c:/nxp/bstudio_nxp/sdk/tools/ba-elf-ba2-r36379/bin/../lib/gcc/ba-elf/4.7.4/mcpu_jn51xx_sizeopt\libgcc.a(gedf2.o)
 .debug_frame   0x0000000000000308       0x34 c:/nxp/bstudio_nxp/sdk/tools/ba-elf-ba2-r36379/bin/../lib/gcc/ba-elf/4.7.4/mcpu_jn51xx_sizeopt\libgcc.a(muldf3.o)
 .debug_frame   0x000000000000033c       0x30 c:/nxp/bstudio_nxp/sdk/tools/ba-elf-ba2-r36379/bin/../lib/gcc/ba-elf/4.7.4/mcpu_jn51xx_sizeopt\libgcc.a(subdf3.o)
 .debug_frame   0x000000000000036c       0x20 c:/nxp/bstudio_nxp/sdk/tools/ba-elf-ba2-r36379/bin/../lib/gcc/ba-elf/4.7.4/mcpu_jn51xx_sizeopt\libgcc.a(fixdfsi.o)
 .debug_frame   0x000000000000038c       0x20 c:/nxp/bstudio_nxp/sdk/tools/ba-elf-ba2-r36379/bin/../lib/gcc/ba-elf/4.7.4/mcpu_jn51xx_sizeopt\libgcc.a(extendsfdf2.o)
 .debug_frame   0x00000000000003ac       0x2c c:/nxp/bstudio_nxp/sdk/tools/ba-elf-ba2-r36379/bin/../lib/gcc/ba-elf/4.7.4/mcpu_jn51xx_sizeopt\libgcc.a(truncdfsf2.o)
 .debug_frame   0x00000000000003d8       0x34 c:/nxp/bstudio_nxp/sdk/tools/ba-elf-ba2-r36379/bin/../lib/gcc/ba-elf/4.7.4/../../../../ba-elf/lib/mcpu_jn51xx_sizeopt\libm.a(lib_a-s_floor.o)

.debug_ranges   0x0000000000000000      0x720
 .debug_ranges  0x0000000000000000       0x80 c:/nxp/bstudio_nxp/sdk/tools/ba-elf-ba2-r36379/bin/../lib/gcc/ba-elf/4.7.4/mcpu_jn51xx_sizeopt\libgcc.a(_divdi3.o)
 .debug_ranges  0x0000000000000080       0xa0 c:/nxp/bstudio_nxp/sdk/tools/ba-elf-ba2-r36379/bin/../lib/gcc/ba-elf/4.7.4/mcpu_jn51xx_sizeopt\libgcc.a(_udivdi3.o)
 .debug_ranges  0x0000000000000120       0x78 c:/nxp/bstudio_nxp/sdk/tools/ba-elf-ba2-r36379/bin/../lib/gcc/ba-elf/4.7.4/mcpu_jn51xx_sizeopt\libgcc.a(addsf3.o)
 .debug_ranges  0x0000000000000198       0x18 c:/nxp/bstudio_nxp/sdk/tools/ba-elf-ba2-r36379/bin/../lib/gcc/ba-elf/4.7.4/mcpu_jn51xx_sizeopt\libgcc.a(divsf3.o)
 .debug_ranges  0x00000000000001b0       0x40 c:/nxp/bstudio_nxp/sdk/tools/ba-elf-ba2-r36379/bin/../lib/gcc/ba-elf/4.7.4/mcpu_jn51xx_sizeopt\libgcc.a(eqsf2.o)
 .debug_ranges  0x00000000000001f0       0x38 c:/nxp/bstudio_nxp/sdk/tools/ba-elf-ba2-r36379/bin/../lib/gcc/ba-elf/4.7.4/mcpu_jn51xx_sizeopt\libgcc.a(gesf2.o)
 .debug_ranges  0x0000000000000228       0x40 c:/nxp/bstudio_nxp/sdk/tools/ba-elf-ba2-r36379/bin/../lib/gcc/ba-elf/4.7.4/mcpu_jn51xx_sizeopt\libgcc.a(lesf2.o)
 .debug_ranges  0x0000000000000268       0x40 c:/nxp/bstudio_nxp/sdk/tools/ba-elf-ba2-r36379/bin/../lib/gcc/ba-elf/4.7.4/mcpu_jn51xx_sizeopt\libgcc.a(mulsf3.o)
 .debug_ranges  0x00000000000002a8       0x78 c:/nxp/bstudio_nxp/sdk/tools/ba-elf-ba2-r36379/bin/../lib/gcc/ba-elf/4.7.4/mcpu_jn51xx_sizeopt\libgcc.a(subsf3.o)
 .debug_ranges  0x0000000000000320       0x80 c:/nxp/bstudio_nxp/sdk/tools/ba-elf-ba2-r36379/bin/../lib/gcc/ba-elf/4.7.4/mcpu_jn51xx_sizeopt\libgcc.a(adddf3.o)
 .debug_ranges  0x00000000000003a0       0xb0 c:/nxp/bstudio_nxp/sdk/tools/ba-elf-ba2-r36379/bin/../lib/gcc/ba-elf/4.7.4/mcpu_jn51xx_sizeopt\libgcc.a(divdf3.o)
 .debug_ranges  0x0000000000000450       0x58 c:/nxp/bstudio_nxp/sdk/tools/ba-elf-ba2-r36379/bin/../lib/gcc/ba-elf/4.7.4/mcpu_jn51xx_sizeopt\libgcc.a(gedf2.o)
 .debug_ranges  0x00000000000004a8      0x1a8 c:/nxp/bstudio_nxp/sdk/tools/ba-elf-ba2-r36379/bin/../lib/gcc/ba-elf/4.7.4/mcpu_jn51xx_sizeopt\libgcc.a(muldf3.o)
 .debug_ranges  0x0000000000000650       0x78 c:/nxp/bstudio_nxp/sdk/tools/ba-elf-ba2-r36379/bin/../lib/gcc/ba-elf/4.7.4/mcpu_jn51xx_sizeopt\libgcc.a(subdf3.o)
 .debug_ranges  0x00000000000006c8       0x18 c:/nxp/bstudio_nxp/sdk/tools/ba-elf-ba2-r36379/bin/../lib/gcc/ba-elf/4.7.4/mcpu_jn51xx_sizeopt\libgcc.a(fixdfsi.o)
 .debug_ranges  0x00000000000006e0       0x18 c:/nxp/bstudio_nxp/sdk/tools/ba-elf-ba2-r36379/bin/../lib/gcc/ba-elf/4.7.4/mcpu_jn51xx_sizeopt\libgcc.a(extendsfdf2.o)
 .debug_ranges  0x00000000000006f8       0x28 c:/nxp/bstudio_nxp/sdk/tools/ba-elf-ba2-r36379/bin/../lib/gcc/ba-elf/4.7.4/mcpu_jn51xx_sizeopt\libgcc.a(truncdfsf2.o)
